
 perl312f

 Start         Length     Name                   Class
 0001:00000000 0000B4B48H TEXT32                 CODE 32-bit
 0001:000B4B48 000000004H SET1___CTOR_LIST__     CODE 32-bit
 0001:000B4B4C 000000000H SET2___CTOR_LIST__     CODE 32-bit
 0001:000B4B4C 000000004H SET3___CTOR_LIST__     CODE 32-bit
 0001:000B4B50 000000004H SET1___DTOR_LIST__     CODE 32-bit
 0001:000B4B54 000000000H SET2___DTOR_LIST__     CODE 32-bit
 0001:000B4B54 000000004H SET3___DTOR_LIST__     CODE 32-bit
 0001:000B4B58 000000004H SET1___crtinit1__      CODE 32-bit
 0001:000B4B5C 000000000H SET2___crtinit1__      CODE 32-bit
 0001:000B4B5C 000000004H SET3___crtinit1__      CODE 32-bit
 0001:000B4B60 000000004H SET1___crtexit1__      CODE 32-bit
 0001:000B4B64 000000000H SET2___crtexit1__      CODE 32-bit
 0001:000B4B64 000000004H SET3___crtexit1__      CODE 32-bit
 0001:000B4B68 000000004H SET1___eh_frame__      CODE 32-bit
 0001:000B4B6C 000000000H SET2___eh_frame__      CODE 32-bit
 0001:000B4B6C 000000004H SET3___eh_frame__      CODE 32-bit
 0001:000B4B70 000000000H ________TEXT           CODE 32-bit
 0002:00000000 000008788H DATA32                 DATA 32-bit
 0002:00008790 000000000H ________DATA           DATA 32-bit
 0002:00008790 000007808H BSS32                  BSS 32-bit
 0002:0000FFA0 0000229BCH c_common               BSS 32-bit
 0002:00032960 000000000H ________BSS            BSS 32-bit

 Origin   Group
 0000:0   FLAT
 0002:0   DGROUP

 Address       Export                  Alias

 0001:000AAF98 async_mssleep           async_mssleep
 0001:00008E94 calloc                  Perl_calloc
 0001:000A9ACC CroakWinError           CroakWinError
 0001:000A60E0 croak_with_os2error     croak_with_os2error
 0001:000A8914 ctermid                 ctermid
 0001:000A9FB0 dir_subst               dir_subst
 0001:000B162C dlclose                 dlclose
 0001:000B1574 dlerror                 dlerror
 0001:000B164C dll_perlmain            main
 0001:000B12A8 dlopen                  dlopen
 0001:000B14D8 dlsym                   dlsym
 0001:000B0824 dup                     dup
 0001:000B07E4 dup2                    dup2
 0001:000B0CE8 endgrent                endgrent
 0001:000AE414 fill_extLibpath         fill_extLibpath
 0001:000B0F38 fork_with_resources     fork_with_resources
 0001:0000898C free                    Perl_mfree
 0001:000B0CEC getgrent                getgrent
 0001:000A6D58 get_sysinfo             get_sysinfo
 0001:000B1168 InfoTable               InfoTable
 0001:000A6C30 init_PMWIN_entries      init_PMWIN_entries
 0001:000A6A68 loadByOrdinal           loadByOrdinal
 0001:00007334 malloc                  Perl_malloc
 0002:00000204 MallocCfgP_ptr          MallocCfgP_ptr
 0002:000001C8 MallocCfg_ptr           MallocCfg_ptr
 0001:000B1150 msCounter               msCounter
 0001:000B0C9C my_endpwent             my_endpwent
 0001:000B0A3C my_flock                my_flock
 0001:000B0CAC my_getpwent             my_getpwent
 0001:000B0D8C my_getpwnam             my_getpwnam
 0001:000B0D78 my_getpwuid             my_getpwuid
 0001:000B0988 my_mkdir                my_mkdir
 0001:000B08EC my_rmdir                my_rmdir
 0001:000B0C80 my_setpwent             my_setpwent
 0001:000B08A8 my_tmpfile              my_tmpfile
 0001:000B085C my_tmpnam               my_tmpnam
 0001:000A9774 os2error                os2error
 0001:000A9CE0 os2_execname            os2_execname
 0002:00010008 OS2_Perl_data           OS2_Perl_data
 0001:000A8974 os2_stat                os2_stat
 0001:00097B64 PerlIOBase_binmode      PerlIOBase_binmode
 0001:00098D18 PerlIOBase_clearerr     PerlIOBase_clearerr
 0001:00098C5C PerlIOBase_close        PerlIOBase_close
 0001:00098D8C PerlIOBase_dup          PerlIOBase_dup
 0001:00098CD8 PerlIOBase_eof          PerlIOBase_eof
 0001:00098CF8 PerlIOBase_error        PerlIOBase_error
 0001:000989F0 PerlIOBase_fileno       PerlIOBase_fileno
 0001:00098C54 PerlIOBase_noop_fail    PerlIOBase_noop_fail
 0001:00098C50 PerlIOBase_noop_ok      PerlIOBase_noop_ok
 0001:00098B40 PerlIOBase_popped       PerlIOBase_popped
 0001:00098A70 PerlIOBase_pushed       PerlIOBase_pushed
 0001:00098B88 PerlIOBase_read         PerlIOBase_read
 0001:00098D3C PerlIOBase_setlinebuf   PerlIOBase_setlinebuf
 0001:00098B48 PerlIOBase_unread       PerlIOBase_unread
 0001:0009A594 PerlIOBuf_bufsiz        PerlIOBuf_bufsiz
 0001:0009A4A8 PerlIOBuf_close         PerlIOBuf_close
 0001:0009A5E8 PerlIOBuf_dup           PerlIOBuf_dup
 0001:0009A054 PerlIOBuf_fill          PerlIOBuf_fill
 0001:00099F30 PerlIOBuf_flush         PerlIOBuf_flush
 0001:0009A53C PerlIOBuf_get_base      PerlIOBuf_get_base
 0001:0009A50C PerlIOBuf_get_cnt       PerlIOBuf_get_cnt
 0001:0009A4F0 PerlIOBuf_get_ptr       PerlIOBuf_get_ptr
 0001:00099D88 PerlIOBuf_open          PerlIOBuf_open
 0001:0009A460 PerlIOBuf_popped        PerlIOBuf_popped
 0001:00099D30 PerlIOBuf_pushed        PerlIOBuf_pushed
 0001:0009A1AC PerlIOBuf_read          PerlIOBuf_read
 0001:0009A3D4 PerlIOBuf_seek          PerlIOBuf_seek
 0001:0009A5B8 PerlIOBuf_set_ptrcnt    PerlIOBuf_set_ptrcnt
 0001:0009A41C PerlIOBuf_tell          PerlIOBuf_tell
 0001:0009A1E4 PerlIOBuf_unread        PerlIOBuf_unread
 0001:0009A2B8 PerlIOBuf_write         PerlIOBuf_write
 0001:00096BE0 PerlIO_allocate         PerlIO_allocate
 0001:00097C2C PerlIO_apply_layera     PerlIO_apply_layera
 0001:00097C88 PerlIO_apply_layers     PerlIO_apply_layers
 0001:000977D4 PerlIO_arg_fetch        PerlIO_arg_fetch
 0001:00097CFC PerlIO_binmode          PerlIO_binmode
 0001:00098778 PerlIO_canset_cnt       PerlIO_canset_cnt
 0001:00096AAC PerlIO_debug            PerlIO_debug
 0001:000973FC PerlIO_define_layer     PerlIO_define_layer
 0001:00099C2C PerlIO_exportFILE       PerlIO_exportFILE
 0001:000986E4 PerlIO_fast_gets        PerlIO_fast_gets
 0001:0009ABB0 PerlIO_fdopen           PerlIO_fdopen
 0001:00099CBC PerlIO_findFILE         PerlIO_findFILE
 0001:0009AC94 PerlIO_getc             PerlIO_getc
 0001:0009ABA4 PerlIO_getname          PerlIO_getname
 0001:0009AEC8 PerlIO_getpos           PerlIO_getpos
 0001:000986A0 PerlIO_has_base         PerlIO_has_base
 0001:0009872C PerlIO_has_cntptr       PerlIO_has_cntptr
 0001:000994BC PerlIO_importFILE       PerlIO_importFILE
 0001:00098E44 PerlIO_init             PerlIO_init
 0001:00098574 PerlIO_isutf8           PerlIO_isutf8
 0001:00097818 PerlIO_layer_fetch      PerlIO_layer_fetch
 0001:00096D40 PerlIO_list_free        PerlIO_list_free
 0001:00098A10 PerlIO_modestr          PerlIO_modestr
 0001:0009ABD0 PerlIO_open             PerlIO_open
 0001:000974C8 PerlIO_parse_layers     PerlIO_parse_layers
 0002:000080A0 PerlIO_pending          PerlIO_pending
 0002:00008030 PerlIO_perlio           PerlIO_perlio
 0001:00096EEC PerlIO_pop              PerlIO_pop
 0001:0009ADE8 PerlIO_printf           PerlIO_printf
 0001:00097A78 PerlIO_push             PerlIO_push
 0001:0009AD00 PerlIO_putc             PerlIO_putc
 0001:0009AD24 PerlIO_puts             PerlIO_puts
 0001:00099CF4 PerlIO_releaseFILE      PerlIO_releaseFILE
 0001:0009AC30 PerlIO_reopen           PerlIO_reopen
 0001:0009AD58 PerlIO_rewind           PerlIO_rewind
 0001:0009AE58 PerlIO_setpos           PerlIO_setpos
 0001:0009AFAC PerlIO_sprintf          PerlIO_sprintf
 0001:0009AE00 PerlIO_stdoutf          PerlIO_stdoutf
 0001:00098D50 PerlIO_sv_dup           PerlIO_sv_dup
 0001:0009AE1C PerlIO_tmpfile          PerlIO_tmpfile
 0001:0009ACC4 PerlIO_ungetc           PerlIO_ungetc
 0001:0009AD74 PerlIO_vprintf          PerlIO_vprintf
 0001:0009AF2C PerlIO_vsprintf         PerlIO_vsprintf
 0001:000969C4 perlsio_binmode         perlsio_binmode
 0001:00000028 perl_alloc              perl_alloc
 0001:0000CFEC Perl_amagic_call        Perl_amagic_call
 0001:00025EC8 Perl_apply_attrs_string  Perl_apply_attrs_string
 0001:00042644 Perl_atfork_lock        Perl_atfork_lock
 0001:00042648 Perl_atfork_unlock      Perl_atfork_unlock
 0001:0004DD3C Perl_avhv_delete_ent    Perl_avhv_delete_ent
 0001:0004DD90 Perl_avhv_exists_ent    Perl_avhv_exists_ent
 0001:0004DD14 Perl_avhv_fetch_ent     Perl_avhv_fetch_ent
 0001:0004DDE0 Perl_avhv_iternext      Perl_avhv_iternext
 0001:0004DDF4 Perl_avhv_iterval       Perl_avhv_iterval
 0001:0004DC34 Perl_avhv_keys          Perl_avhv_keys
 0001:0004DCEC Perl_avhv_store_ent     Perl_avhv_store_ent
 0001:0004C7EC Perl_av_clear           Perl_av_clear
 0001:0004D670 Perl_av_delete          Perl_av_delete
 0001:0004D8A4 Perl_av_exists          Perl_av_exists
 0001:0004BDBC Perl_av_extend          Perl_av_extend
 0001:0004C1FC Perl_av_fetch           Perl_av_fetch
 0001:0004D3B0 Perl_av_fill            Perl_av_fill
 0001:0004D374 Perl_av_len             Perl_av_len
 0001:0004C6E0 Perl_av_make            Perl_av_make
 0001:0004CB44 Perl_av_pop             Perl_av_pop
 0001:0004C91C Perl_av_push            Perl_av_push
 0001:0004D0F0 Perl_av_shift           Perl_av_shift
 0001:0004C400 Perl_av_store           Perl_av_store
 0001:0004C874 Perl_av_undef           Perl_av_undef
 0001:0004CDC4 Perl_av_unshift         Perl_av_unshift
 0001:0006FA84 Perl_block_gimme        Perl_block_gimme
 0001:0008FE6C Perl_bytes_from_utf8    Perl_bytes_from_utf8
 0001:0008FF14 Perl_bytes_to_utf8      Perl_bytes_to_utf8
 0001:00008E94 Perl_calloc             Perl_calloc
 0001:00002B00 Perl_call_argv          Perl_call_argv
 0001:000010C0 Perl_call_atexit        Perl_call_atexit
 0001:000068D0 Perl_call_list          Perl_call_list
 0001:00002BB8 Perl_call_method        Perl_call_method
 0001:00002B9C Perl_call_pv            Perl_call_pv
 0001:00002BF8 Perl_call_sv            Perl_call_sv
 0001:0009B088 Perl_cast_i32           Perl_cast_i32
 0001:0009B13C Perl_cast_iv            Perl_cast_iv
 0001:0009AFD8 Perl_cast_ulong         Perl_cast_ulong
 0001:0009B1E8 Perl_cast_uv            Perl_cast_uv
 0001:00000058 perl_construct          perl_construct
 0001:000416F8 Perl_croak              Perl_croak
 0001:00045D88 Perl_csighandler        Perl_csighandler
 0001:0002FA6C Perl_custom_op_desc     Perl_custom_op_desc
 0001:0002FA14 Perl_custom_op_name     Perl_custom_op_name
 0001:0002A670 Perl_cv_const_sv        Perl_cv_const_sv
 0001:0002A400 Perl_cv_undef           Perl_cv_undef
 0001:0006B540 Perl_cxinc              Perl_cxinc
 0001:0006D46C Perl_cx_dump            Perl_cx_dump
 0001:000922D8 Perl_deb                Perl_deb
 0001:0003FF40 Perl_delimcpy           Perl_delimcpy
 0001:000AAB4C Perl_Deregister_MQ      Perl_Deregister_MQ
 0001:00045DB0 Perl_despatch_signals   Perl_despatch_signals
 0001:000003F4 perl_destruct           perl_destruct
 0001:00041300 Perl_die                Perl_die
 0001:00005AE4 Perl_doing_taint        Perl_doing_taint
 0001:0006FCB4 Perl_dounwind           Perl_dounwind
 0001:0006FA58 Perl_dowantarray        Perl_dowantarray
 0001:00084D10 Perl_do_binmode         Perl_do_binmode
 0001:00084628 Perl_do_close           Perl_do_close
 0001:0003D430 Perl_do_gvgv_dump       Perl_do_gvgv_dump
 0001:0003D3D0 Perl_do_gv_dump         Perl_do_gv_dump
 0001:0003D380 Perl_do_hv_dump         Perl_do_hv_dump
 0001:00080E68 Perl_do_join            Perl_do_join
 0001:0003CE60 Perl_do_magic_dump      Perl_do_magic_dump
 0001:0008254C Perl_do_open            Perl_do_open
 0001:00082578 Perl_do_open9           Perl_do_open9
 0001:0008274C Perl_do_openn           Perl_do_openn
 0001:0003BF38 Perl_do_op_dump         Perl_do_op_dump
 0001:0003BA3C Perl_do_pmop_dump       Perl_do_pmop_dump
 0001:00080FF4 Perl_do_sprintf         Perl_do_sprintf
 0001:0003DBF8 Perl_do_sv_dump         Perl_do_sv_dump
 0001:0003B028 Perl_dump_all           Perl_dump_all
 0001:0003B224 Perl_dump_eval          Perl_dump_eval
 0001:0003B1C0 Perl_dump_form          Perl_dump_form
 0001:0003AFB8 Perl_dump_indent        Perl_dump_indent
 0001:00009770 Perl_dump_mstats        Perl_dump_mstats
 0001:0003B058 Perl_dump_packsubs      Perl_dump_packsubs
 0001:0003B128 Perl_dump_sub           Perl_dump_sub
 0001:0003AFEC Perl_dump_vindent       Perl_dump_vindent
 0001:00003490 Perl_eval_pv            Perl_eval_pv
 0001:000031F8 Perl_eval_sv            Perl_eval_sv
 0001:00040130 Perl_fbm_compile        Perl_fbm_compile
 0001:000402D4 Perl_fbm_instr          Perl_fbm_instr
 0001:00010F6C Perl_filter_add         Perl_filter_add
 0001:0001102C Perl_filter_del         Perl_filter_del
 0001:00011080 Perl_filter_read        Perl_filter_read
 0001:000409B4 Perl_form               Perl_form
 0001:00096990 Perl_fprintf_nocontext  Perl_fprintf_nocontext
 0001:000010B0 perl_free               perl_free
 0001:0006B780 Perl_free_tmps          Perl_free_tmps
 0001:00043B7C Perl_getcwd_sv          Perl_getcwd_sv
 0001:000029EC Perl_get_av             Perl_get_av
 0001:00042F6C Perl_get_context        Perl_get_context
 0001:00002A7C Perl_get_cv             Perl_get_cv
 0001:00002A34 Perl_get_hv             Perl_get_hv
 0001:00009060 Perl_get_mstats         Perl_get_mstats
 0001:00042F7C Perl_get_op_descs       Perl_get_op_descs
 0001:00042F74 Perl_get_op_names       Perl_get_op_names
 0001:00042F94 Perl_get_ppaddr         Perl_get_ppaddr
 0001:000029CC Perl_get_sv             Perl_get_sv
 0001:00042FCC Perl_get_vtbl           Perl_get_vtbl
 0001:0000C88C Perl_gp_free            Perl_gp_free
 0001:0000C820 Perl_gp_ref             Perl_gp_ref
 0001:0009B31C Perl_grok_bin           Perl_grok_bin
 0001:0009B630 Perl_grok_hex           Perl_grok_hex
 0001:0009BD84 Perl_grok_number        Perl_grok_number
 0001:0009BCD8 Perl_grok_numeric_radix  Perl_grok_numeric_radix
 0001:0009B96C Perl_grok_oct           Perl_grok_oct
 0001:0000CAAC Perl_Gv_AMupdate        Perl_Gv_AMupdate
 0001:0000AB88 Perl_gv_autoload4       Perl_gv_autoload4
 0001:00009E94 Perl_gv_AVadd           Perl_gv_AVadd
 0001:0000C6A0 Perl_gv_check           Perl_gv_check
 0001:0003CA08 Perl_gv_dump            Perl_gv_dump
 0001:0000C5B0 Perl_gv_efullname       Perl_gv_efullname
 0001:0000C570 Perl_gv_efullname3      Perl_gv_efullname3
 0001:0000C540 Perl_gv_efullname4      Perl_gv_efullname4
 0001:00009F74 Perl_gv_fetchfile       Perl_gv_fetchfile
 0001:0000A404 Perl_gv_fetchmeth       Perl_gv_fetchmeth
 0001:0000A928 Perl_gv_fetchmethod     Perl_gv_fetchmethod
 0001:0000A95C Perl_gv_fetchmethod_autoload  Perl_gv_fetchmethod_autoload
 0001:0000A848 Perl_gv_fetchmeth_autoload  Perl_gv_fetchmeth_autoload
 0001:0000B108 Perl_gv_fetchpv         Perl_gv_fetchpv
 0001:0000C58C Perl_gv_fullname        Perl_gv_fullname
 0001:0000C528 Perl_gv_fullname3       Perl_gv_fullname3
 0001:0000C480 Perl_gv_fullname4       Perl_gv_fullname4
 0001:0000CE64 Perl_gv_handler         Perl_gv_handler
 0001:00009EE4 Perl_gv_HVadd           Perl_gv_HVadd
 0001:0000A088 Perl_gv_init            Perl_gv_init
 0001:00009F38 Perl_gv_IOadd           Perl_gv_IOadd
 0001:0000AE60 Perl_gv_stashpv         Perl_gv_stashpv
 0001:0000AE98 Perl_gv_stashpvn        Perl_gv_stashpvn
 0001:0000AF54 Perl_gv_stashsv         Perl_gv_stashsv
 0001:000AA7B8 Perl_hab_GET            Perl_hab_GET
 0001:0004B300 Perl_hv_clear           Perl_hv_clear
 0001:0004B240 Perl_hv_delayfree_ent   Perl_hv_delayfree_ent
 0001:00049E28 Perl_hv_delete          Perl_hv_delete
 0001:0004A1F0 Perl_hv_delete_ent      Perl_hv_delete_ent
 0001:0004A5A8 Perl_hv_exists          Perl_hv_exists
 0001:0004A820 Perl_hv_exists_ent      Perl_hv_exists_ent
 0001:00048EDC Perl_hv_fetch           Perl_hv_fetch
 0001:00049264 Perl_hv_fetch_ent       Perl_hv_fetch_ent
 0001:0004B1B4 Perl_hv_free_ent        Perl_hv_free_ent
 0001:0004B4F8 Perl_hv_iterinit        Perl_hv_iterinit
 0001:0004B784 Perl_hv_iterkey         Perl_hv_iterkey
 0001:0004B7E8 Perl_hv_iterkeysv       Perl_hv_iterkeysv
 0001:0004B544 Perl_hv_iternext        Perl_hv_iternext
 0001:0004B8F0 Perl_hv_iternextsv      Perl_hv_iternextsv
 0001:0004B554 Perl_hv_iternext_flags  Perl_hv_iternext_flags
 0001:0004B898 Perl_hv_iterval         Perl_hv_iterval
 0001:0004ADDC Perl_hv_ksplit          Perl_hv_ksplit
 0001:0004B930 Perl_hv_magic           Perl_hv_magic
 0001:00049640 Perl_hv_store           Perl_hv_store
 0001:00049A30 Perl_hv_store_ent       Perl_hv_store_ent
 0001:000496D8 Perl_hv_store_flags     Perl_hv_store_flags
 0001:0004B448 Perl_hv_undef           Perl_hv_undef
 0001:00040800 Perl_ibcmp              Perl_ibcmp
 0001:00040844 Perl_ibcmp_locale       Perl_ibcmp_locale
 0001:00091B54 Perl_ibcmp_utf8         Perl_ibcmp_utf8
 0001:0009CD94 Perl_init_i18nl10n      Perl_init_i18nl10n
 0001:0009D2A0 Perl_init_i18nl14n      Perl_init_i18nl14n
 0001:00005CF8 Perl_init_stacks        Perl_init_stacks
 0001:00043658 Perl_init_tm            Perl_init_tm
 0001:0003FFB8 Perl_instr              Perl_instr
 0001:0006FAF0 Perl_is_lvalue_sub      Perl_is_lvalue_sub
 0001:0009011C Perl_is_uni_alnum       Perl_is_uni_alnum
 0001:00090140 Perl_is_uni_alnumc      Perl_is_uni_alnumc
 0001:000903B4 Perl_is_uni_alnumc_lc   Perl_is_uni_alnumc_lc
 0001:000903A4 Perl_is_uni_alnum_lc    Perl_is_uni_alnum_lc
 0001:00090188 Perl_is_uni_alpha       Perl_is_uni_alpha
 0001:000903D4 Perl_is_uni_alpha_lc    Perl_is_uni_alpha_lc
 0001:000901AC Perl_is_uni_ascii       Perl_is_uni_ascii
 0001:000903E4 Perl_is_uni_ascii_lc    Perl_is_uni_ascii_lc
 0001:00090260 Perl_is_uni_cntrl       Perl_is_uni_cntrl
 0001:00090434 Perl_is_uni_cntrl_lc    Perl_is_uni_cntrl_lc
 0001:000901F4 Perl_is_uni_digit       Perl_is_uni_digit
 0001:00090404 Perl_is_uni_digit_lc    Perl_is_uni_digit_lc
 0001:00090284 Perl_is_uni_graph       Perl_is_uni_graph
 0001:00090444 Perl_is_uni_graph_lc    Perl_is_uni_graph_lc
 0001:00090164 Perl_is_uni_idfirst     Perl_is_uni_idfirst
 0001:000903C4 Perl_is_uni_idfirst_lc  Perl_is_uni_idfirst_lc
 0001:0009023C Perl_is_uni_lower       Perl_is_uni_lower
 0001:00090424 Perl_is_uni_lower_lc    Perl_is_uni_lower_lc
 0001:000902A8 Perl_is_uni_print       Perl_is_uni_print
 0001:00090454 Perl_is_uni_print_lc    Perl_is_uni_print_lc
 0001:000902CC Perl_is_uni_punct       Perl_is_uni_punct
 0001:00090464 Perl_is_uni_punct_lc    Perl_is_uni_punct_lc
 0001:000901D0 Perl_is_uni_space       Perl_is_uni_space
 0001:000903F4 Perl_is_uni_space_lc    Perl_is_uni_space_lc
 0001:00090218 Perl_is_uni_upper       Perl_is_uni_upper
 0001:00090414 Perl_is_uni_upper_lc    Perl_is_uni_upper_lc
 0001:000902F0 Perl_is_uni_xdigit      Perl_is_uni_xdigit
 0001:00090474 Perl_is_uni_xdigit_lc   Perl_is_uni_xdigit_lc
 0001:000904E4 Perl_is_utf8_alnum      Perl_is_utf8_alnum
 0001:00090544 Perl_is_utf8_alnumc     Perl_is_utf8_alnumc
 0001:00090684 Perl_is_utf8_alpha      Perl_is_utf8_alpha
 0001:000906E4 Perl_is_utf8_ascii      Perl_is_utf8_ascii
 0001:0008F0D0 Perl_is_utf8_char       Perl_is_utf8_char
 0001:000908D0 Perl_is_utf8_cntrl      Perl_is_utf8_cntrl
 0001:000907A8 Perl_is_utf8_digit      Perl_is_utf8_digit
 0001:00090930 Perl_is_utf8_graph      Perl_is_utf8_graph
 0001:00090614 Perl_is_utf8_idcont     Perl_is_utf8_idcont
 0001:000905A4 Perl_is_utf8_idfirst    Perl_is_utf8_idfirst
 0001:00090870 Perl_is_utf8_lower      Perl_is_utf8_lower
 0001:00090AAC Perl_is_utf8_mark       Perl_is_utf8_mark
 0001:00090990 Perl_is_utf8_print      Perl_is_utf8_print
 0001:000909F0 Perl_is_utf8_punct      Perl_is_utf8_punct
 0001:00090748 Perl_is_utf8_space      Perl_is_utf8_space
 0001:0008F1C8 Perl_is_utf8_string     Perl_is_utf8_string
 0001:0008F238 Perl_is_utf8_string_loc  Perl_is_utf8_string_loc
 0001:0009080C Perl_is_utf8_upper      Perl_is_utf8_upper
 0001:00090A50 Perl_is_utf8_xdigit     Perl_is_utf8_xdigit
 0001:0006C968 Perl_leave_scope        Perl_leave_scope
 0001:00028A8C Perl_load_module        Perl_load_module
 0001:000562B0 Perl_looks_like_number  Perl_looks_like_number
 0001:0003D350 Perl_magic_dump         Perl_magic_dump
 0001:00007334 Perl_malloc             Perl_malloc
 0001:0006B698 Perl_markstack_grow     Perl_markstack_grow
 0001:00040A34 Perl_mess               Perl_mess
 0001:0000898C Perl_mfree              Perl_mfree
 0001:00044A64 Perl_mg_clear           Perl_mg_clear
 0001:00044AEC Perl_mg_copy            Perl_mg_copy
 0001:00044AB8 Perl_mg_find            Perl_mg_find
 0001:00044B98 Perl_mg_free            Perl_mg_free
 0001:000447B0 Perl_mg_get             Perl_mg_get
 0001:00044900 Perl_mg_length          Perl_mg_length
 0001:0004473C Perl_mg_magical         Perl_mg_magical
 0001:00044890 Perl_mg_set             Perl_mg_set
 0001:000449F4 Perl_mg_size            Perl_mg_size
 0001:0004365C Perl_mini_mktime        Perl_mini_mktime
 0001:000041D4 Perl_moreswitches       Perl_moreswitches
 0001:0009C388 Perl_my_atof            Perl_my_atof
 0001:0009C45C Perl_my_atof2           Perl_my_atof2
 0001:00006C74 Perl_my_exit            Perl_my_exit
 0001:00006C9C Perl_my_failure_exit    Perl_my_failure_exit
 0001:0004314C Perl_my_fflush_all      Perl_my_fflush_all
 0001:0004264C Perl_my_fork            Perl_my_fork
 0001:00085278 Perl_my_lstat           Perl_my_lstat
 0001:00042710 Perl_my_pclose          Perl_my_pclose
 0001:000422F4 Perl_my_popen           Perl_my_popen
 0001:000422A8 Perl_my_popen_list      Perl_my_popen_list
 0001:0004204C Perl_my_setenv          Perl_my_setenv
 0001:00044054 Perl_my_socketpair      Perl_my_socketpair
 0001:00084FC0 Perl_my_stat            Perl_my_stat
 0001:00043A44 Perl_my_strftime        Perl_my_strftime
 0001:0002BDB4 Perl_newANONATTRSUB     Perl_newANONATTRSUB
 0001:0002BD68 Perl_newANONHASH        Perl_newANONHASH
 0001:0002BD34 Perl_newANONLIST        Perl_newANONLIST
 0001:0002BD9C Perl_newANONSUB         Perl_newANONSUB
 0001:00028DAC Perl_newASSIGNOP        Perl_newASSIGNOP
 0001:0002A940 Perl_newATTRSUB         Perl_newATTRSUB
 0001:0004C6A0 Perl_newAV              Perl_newAV
 0001:0002BF60 Perl_newAVREF           Perl_newAVREF
 0001:0002729C Perl_newBINOP           Perl_newBINOP
 0001:0002979C Perl_newCONDOP          Perl_newCONDOP
 0001:0002B5DC Perl_newCONSTSUB        Perl_newCONSTSUB
 0001:0002C12C Perl_newCVREF           Perl_newCVREF
 0001:0002BB50 Perl_newFORM            Perl_newFORM
 0001:0002A09C Perl_newFOROP           Perl_newFOROP
 0001:0000C7F4 Perl_newGVgen           Perl_newGVgen
 0001:00028580 Perl_newGVOP            Perl_newGVOP
 0001:0002BFFC Perl_newGVREF           Perl_newGVREF
 0001:0004AF38 Perl_newHV              Perl_newHV
 0001:0004AF80 Perl_newHVhv            Perl_newHVhv
 0001:0002C06C Perl_newHVREF           Perl_newHVREF
 0001:0000C5EC Perl_newIO              Perl_newIO
 0001:0002704C Perl_newLISTOP          Perl_newLISTOP
 0001:00029310 Perl_newLOGOP           Perl_newLOGOP
 0001:0002A308 Perl_newLOOPEX          Perl_newLOOPEX
 0001:00029B04 Perl_newLOOPOP          Perl_newLOOPOP
 0001:0002A7B4 Perl_newMYSUB           Perl_newMYSUB
 0001:00027008 Perl_newNULLLIST        Perl_newNULLLIST
 0001:0002712C Perl_newOP              Perl_newOP
 0001:000284AC Perl_newPADOP           Perl_newPADOP
 0001:00027F00 Perl_newPMOP            Perl_newPMOP
 0001:00026734 Perl_newPROG            Perl_newPROG
 0001:000285A0 Perl_newPVOP            Perl_newPVOP
 0001:000299AC Perl_newRANGE           Perl_newRANGE
 0001:0005CD14 Perl_newRV              Perl_newRV
 0001:0005CCBC Perl_newRV_noinc        Perl_newRV_noinc
 0001:00028C90 Perl_newSLICEOP         Perl_newSLICEOP
 0001:00029144 Perl_newSTATEOP         Perl_newSTATEOP
 0001:0002A808 Perl_newSUB             Perl_newSUB
 0001:00059864 Perl_newSV              Perl_newSV
 0001:0005CC2C Perl_newSViv            Perl_newSViv
 0001:0005CBE0 Perl_newSVnv            Perl_newSVnv
 0001:00028404 Perl_newSVOP            Perl_newSVOP
 0001:0005C95C Perl_newSVpv            Perl_newSVpv
 0001:0005CB3C Perl_newSVpvf           Perl_newSVpvf
 0001:0005C9CC Perl_newSVpvn           Perl_newSVpvn
 0001:0005CA18 Perl_newSVpvn_share     Perl_newSVpvn_share
 0001:0002C148 Perl_newSVREF           Perl_newSVREF
 0001:0005D8E0 Perl_newSVrv            Perl_newSVrv
 0001:0005CD54 Perl_newSVsv            Perl_newSVsv
 0001:0005CC74 Perl_newSVuv            Perl_newSVuv
 0001:000271D4 Perl_newUNOP            Perl_newUNOP
 0001:00029D3C Perl_newWHILEOP         Perl_newWHILEOP
 0001:0002B724 Perl_newXS              Perl_newXS
 0001:0009CAF4 Perl_new_collate        Perl_new_collate
 0001:0009CA8C Perl_new_ctype          Perl_new_ctype
 0001:0009C978 Perl_new_numeric        Perl_new_numeric
 0001:0006B4A8 Perl_new_stackinfo      Perl_new_stackinfo
 0001:00040018 Perl_ninstr             Perl_ninstr
 0001:000002F0 Perl_nothreadhook       Perl_nothreadhook
 0001:0003C9E0 Perl_op_dump            Perl_op_dump
 0001:00023BC8 Perl_op_free            Perl_op_free
 0001:00023E78 Perl_op_null            Perl_op_null
 0001:000A9D54 Perl_OS2_handler_install  Perl_OS2_handler_install
 0001:000B03D8 Perl_OS2_init           Perl_OS2_init
 0001:000B0500 Perl_OS2_init3          Perl_OS2_init3
 0001:000B0078 Perl_OS2_term           Perl_OS2_term
 0001:000A1980 Perl_packlist           Perl_packlist
 0001:000A1930 Perl_pack_cat           Perl_pack_cat
 0001:000307DC Perl_pad_sv             Perl_pad_sv
 0001:00001140 perl_parse              perl_parse
 0001:00098628 Perl_PerlIO_clearerr    Perl_PerlIO_clearerr
 0001:00097DF4 Perl_PerlIO_close       Perl_PerlIO_close
 0001:000985A0 Perl_PerlIO_eof         Perl_PerlIO_eof
 0001:000985E4 Perl_PerlIO_error       Perl_PerlIO_error
 0001:00097E1C Perl_PerlIO_fileno      Perl_PerlIO_fileno
 0001:0009852C Perl_PerlIO_fill        Perl_PerlIO_fill
 0001:00098448 Perl_PerlIO_flush       Perl_PerlIO_flush
 0001:000987BC Perl_PerlIO_get_base    Perl_PerlIO_get_base
 0001:00098800 Perl_PerlIO_get_bufsiz  Perl_PerlIO_get_bufsiz
 0001:0009888C Perl_PerlIO_get_cnt     Perl_PerlIO_get_cnt
 0001:00098848 Perl_PerlIO_get_ptr     Perl_PerlIO_get_ptr
 0001:000982A8 Perl_PerlIO_read        Perl_PerlIO_read
 0001:000983A0 Perl_PerlIO_seek        Perl_PerlIO_seek
 0001:00098664 Perl_PerlIO_setlinebuf  Perl_PerlIO_setlinebuf
 0001:000988D4 Perl_PerlIO_set_cnt     Perl_PerlIO_set_cnt
 0001:00098918 Perl_PerlIO_set_ptrcnt  Perl_PerlIO_set_ptrcnt
 0001:0009AB6C Perl_PerlIO_stderr      Perl_PerlIO_stderr
 0001:0009AB3C Perl_PerlIO_stdin       Perl_PerlIO_stdin
 0001:0009AB54 Perl_PerlIO_stdout      Perl_PerlIO_stdout
 0001:000983F0 Perl_PerlIO_tell        Perl_PerlIO_tell
 0001:000982FC Perl_PerlIO_unread      Perl_PerlIO_unread
 0001:00098350 Perl_PerlIO_write       Perl_PerlIO_write
 0001:0001EAA0 Perl_pmflag             Perl_pmflag
 0001:0003BC5C Perl_pmop_dump          Perl_pmop_dump
 0001:0006B670 Perl_pop_scope          Perl_pop_scope
 0001:000340F0 Perl_pregcomp           Perl_pregcomp
 0001:00086134 Perl_pregexec           Perl_pregexec
 0001:0003A990 Perl_pregfree           Perl_pregfree
 0001:000969A8 Perl_printf_nocontext   Perl_printf_nocontext
 0001:000AAA84 Perl_Process_Messages   Perl_Process_Messages
 0001:0006B61C Perl_push_scope         Perl_push_scope
 0001:00008F2C Perl_putenv             Perl_putenv
 0001:0003B258 Perl_pv_display         Perl_pv_display
 0001:000919C4 Perl_pv_uni_display     Perl_pv_uni_display
 0001:00008ADC Perl_realloc            Perl_realloc
 0001:00048D5C Perl_reentrant_free     Perl_reentrant_free
 0001:00048D58 Perl_reentrant_init     Perl_reentrant_init
 0001:00048D60 Perl_reentrant_retry    Perl_reentrant_retry
 0001:00048D54 Perl_reentrant_size     Perl_reentrant_size
 0001:0008E380 Perl_regclass_swash     Perl_regclass_swash
 0001:0003A940 Perl_regdump            Perl_regdump
 0001:00088D28 Perl_regexec_flags      Perl_regexec_flags
 0001:00034050 Perl_reginitcolors      Perl_reginitcolors
 0001:000AA910 Perl_Register_MQ        Perl_Register_MQ
 0001:0003AC14 Perl_regnext            Perl_regnext
 0001:00042AA0 Perl_repeatcpy          Perl_repeatcpy
 0001:000035AC Perl_require_pv         Perl_require_pv
 0001:0008618C Perl_re_intuit_start    Perl_re_intuit_start
 0001:0003A948 Perl_re_intuit_string   Perl_re_intuit_string
 0001:000400A4 Perl_rninstr            Perl_rninstr
 0001:00042654 Perl_rsignal            Perl_rsignal
 0001:0004269C Perl_rsignal_state      Perl_rsignal_state
 0001:000026A4 perl_run                perl_run
 0001:0003F994 Perl_runops_debug       Perl_runops_debug
 0001:0004DE28 Perl_runops_standard    Perl_runops_standard
 0001:0003FEB8 Perl_safesyscalloc      Perl_safesyscalloc
 0001:0003FEA4 Perl_safesysfree        Perl_safesysfree
 0001:0003FDBC Perl_safesysmalloc      Perl_safesysmalloc
 0001:0003FE20 Perl_safesysrealloc     Perl_safesysrealloc
 0001:00040888 Perl_savepv             Perl_savepv
 0001:000408C4 Perl_savepvn            Perl_savepvn
 0001:00040908 Perl_savesharedpv       Perl_savesharedpv
 0001:0006B6E0 Perl_savestack_grow     Perl_savestack_grow
 0001:0006B714 Perl_savestack_grow_cnt  Perl_savestack_grow_cnt
 0001:0006C6E4 Perl_save_aelem         Perl_save_aelem
 0001:0006C898 Perl_save_alloc         Perl_save_alloc
 0001:0006C38C Perl_save_aptr          Perl_save_aptr
 0001:0006BC9C Perl_save_ary           Perl_save_ary
 0001:0006BFA0 Perl_save_bool          Perl_save_bool
 0001:0006C4F0 Perl_save_clearsv       Perl_save_clearsv
 0001:0006C53C Perl_save_delete        Perl_save_delete
 0001:0006C63C Perl_save_destructor    Perl_save_destructor
 0001:0006C690 Perl_save_destructor_x  Perl_save_destructor_x
 0001:0006C4AC Perl_save_freepv        Perl_save_freepv
 0001:0006C3E0 Perl_save_freesv        Perl_save_freesv
 0001:0006BA04 Perl_save_generic_pvref  Perl_save_generic_pvref
 0001:0006B9A4 Perl_save_generic_svref  Perl_save_generic_svref
 0001:0006BAAC Perl_save_gp            Perl_save_gp
 0001:0006BD98 Perl_save_hash          Perl_save_hash
 0001:0006C794 Perl_save_helem         Perl_save_helem
 0001:0002656C Perl_save_hints         Perl_save_hints
 0001:0006C338 Perl_save_hptr          Perl_save_hptr
 0001:0006C050 Perl_save_I16           Perl_save_I16
 0001:0006BFFC Perl_save_I32           Perl_save_I32
 0001:0006C0A4 Perl_save_I8            Perl_save_I8
 0001:0006BEF8 Perl_save_int           Perl_save_int
 0001:0006BE90 Perl_save_item          Perl_save_item
 0001:0006C0F8 Perl_save_iv            Perl_save_iv
 0001:0006C5B4 Perl_save_list          Perl_save_list
 0001:0006BF4C Perl_save_long          Perl_save_long
 0001:0006C424 Perl_save_mortalizesv   Perl_save_mortalizesv
 0001:0006C2F4 Perl_save_nogv          Perl_save_nogv
 0001:0006C248 Perl_save_padsv         Perl_save_padsv
 0001:0006C14C Perl_save_pptr          Perl_save_pptr
 0001:0003AD7C Perl_save_re_context    Perl_save_re_context
 0001:0006B8B8 Perl_save_scalar        Perl_save_scalar
 0001:0006BA58 Perl_save_shared_pvref  Perl_save_shared_pvref
 0001:0006C1F4 Perl_save_sptr          Perl_save_sptr
 0001:0006B938 Perl_save_svref         Perl_save_svref
 0001:0006C2E8 Perl_save_threadsv      Perl_save_threadsv
 0001:0006C1A0 Perl_save_vptr          Perl_save_vptr
 0001:0009BBB8 Perl_scan_bin           Perl_scan_bin
 0001:0009BC78 Perl_scan_hex           Perl_scan_hex
 0001:00020554 Perl_scan_num           Perl_scan_num
 0001:0009BC18 Perl_scan_oct           Perl_scan_oct
 0001:00021BA0 Perl_scan_vstring       Perl_scan_vstring
 0001:00040610 Perl_screaminstr        Perl_screaminstr
 0001:000AAA08 Perl_Serve_Messages     Perl_Serve_Messages
 0001:00042F70 Perl_set_context        Perl_set_context
 0001:0009CA5C Perl_set_numeric_local  Perl_set_numeric_local
 0001:0009C900 Perl_set_numeric_radix  Perl_set_numeric_radix
 0001:0009CA2C Perl_set_numeric_standard  Perl_set_numeric_standard
 0001:000A5160 Perl_sortsv             Perl_sortsv
 0001:0006B470 Perl_stack_grow         Perl_stack_grow
 0001:000212C4 Perl_start_subparse     Perl_start_subparse
 0001:00008EE4 Perl_strdup             Perl_strdup
 0001:0000F1DC Perl_str_to_version     Perl_str_to_version
 0001:00057EAC Perl_sv_2bool           Perl_sv_2bool
 0001:0005D1A0 Perl_sv_2cv             Perl_sv_2cv
 0001:0005D050 Perl_sv_2io             Perl_sv_2io
 0001:00056318 Perl_sv_2iv             Perl_sv_2iv
 0001:0005C8F8 Perl_sv_2mortal         Perl_sv_2mortal
 0001:00056EB4 Perl_sv_2nv             Perl_sv_2nv
 0001:000574C4 Perl_sv_2pv             Perl_sv_2pv
 0001:00057E1C Perl_sv_2pvbyte         Perl_sv_2pvbyte
 0001:00057E04 Perl_sv_2pvbyte_nolen   Perl_sv_2pvbyte_nolen
 0001:00057E70 Perl_sv_2pvutf8         Perl_sv_2pvutf8
 0001:00057E58 Perl_sv_2pvutf8_nolen   Perl_sv_2pvutf8_nolen
 0001:00057540 Perl_sv_2pv_flags       Perl_sv_2pv_flags
 0001:00057428 Perl_sv_2pv_nolen       Perl_sv_2pv_nolen
 0001:000568EC Perl_sv_2uv             Perl_sv_2uv
 0001:00055CAC Perl_sv_backoff         Perl_sv_backoff
 0001:0005DB08 Perl_sv_bless           Perl_sv_bless
 0001:00059768 Perl_sv_catpv           Perl_sv_catpv
 0001:0005DEBC Perl_sv_catpvf          Perl_sv_catpvf
 0001:0005DF28 Perl_sv_catpvf_mg       Perl_sv_catpvf_mg
 0001:00059528 Perl_sv_catpvn          Perl_sv_catpvn
 0001:00059540 Perl_sv_catpvn_flags    Perl_sv_catpvn_flags
 0001:00059600 Perl_sv_catpvn_mg       Perl_sv_catpvn_mg
 0001:00059840 Perl_sv_catpv_mg        Perl_sv_catpv_mg
 0001:0005962C Perl_sv_catsv           Perl_sv_catsv
 0001:00059640 Perl_sv_catsv_flags     Perl_sv_catsv_flags
 0001:00059740 Perl_sv_catsv_mg        Perl_sv_catsv_mg
 0001:00060514 Perl_sv_cat_decode      Perl_sv_cat_decode
 0001:00059464 Perl_sv_chop            Perl_sv_chop
 0001:0005A4F0 Perl_sv_clear           Perl_sv_clear
 0001:0005B624 Perl_sv_cmp             Perl_sv_cmp
 0001:0005B874 Perl_sv_cmp_locale      Perl_sv_cmp_locale
 0001:0005B940 Perl_sv_collxfrm        Perl_sv_collxfrm
 0001:000730B4 Perl_sv_compile_2op     Perl_sv_compile_2op
 0001:00057DA8 Perl_sv_copypv          Perl_sv_copypv
 0001:0005C604 Perl_sv_dec             Perl_sv_dec
 0001:000926D0 Perl_sv_derived_from    Perl_sv_derived_from
 0001:0003F940 Perl_sv_dump            Perl_sv_dump
 0001:0005B3F0 Perl_sv_eq              Perl_sv_eq
 0001:00059454 Perl_sv_force_normal    Perl_sv_force_normal
 0001:00059390 Perl_sv_force_normal_flags  Perl_sv_force_normal_flags
 0001:0005AB48 Perl_sv_free            Perl_sv_free
 0001:0005BA60 Perl_sv_gets            Perl_sv_gets
 0001:00055CEC Perl_sv_grow            Perl_sv_grow
 0001:0005C300 Perl_sv_inc             Perl_sv_inc
 0001:0005A114 Perl_sv_insert          Perl_sv_insert
 0001:0005D884 Perl_sv_isa             Perl_sv_isa
 0001:0005D844 Perl_sv_isobject        Perl_sv_isobject
 0001:0005D444 Perl_sv_iv              Perl_sv_iv
 0001:0005AC60 Perl_sv_len             Perl_sv_len
 0001:0005ACB4 Perl_sv_len_utf8        Perl_sv_len_utf8
 0001:00059A2C Perl_sv_magic           Perl_sv_magic
 0001:000598C8 Perl_sv_magicext        Perl_sv_magicext
 0001:0005C814 Perl_sv_mortalcopy      Perl_sv_mortalcopy
 0001:0005C890 Perl_sv_newmortal       Perl_sv_newmortal
 0001:0005AB0C Perl_sv_newref          Perl_sv_newref
 0001:00044288 Perl_sv_nolocking       Perl_sv_nolocking
 0001:00044284 Perl_sv_nosharing       Perl_sv_nosharing
 0001:0004428C Perl_sv_nounlocking     Perl_sv_nounlocking
 0001:0005D48C Perl_sv_nv              Perl_sv_nv
 0001:0005B1FC Perl_sv_pos_b2u         Perl_sv_pos_b2u
 0001:0005AFD8 Perl_sv_pos_u2b         Perl_sv_pos_u2b
 0001:0005D4A8 Perl_sv_pv              Perl_sv_pv
 0001:0005D680 Perl_sv_pvbyte          Perl_sv_pvbyte
 0001:0005D6AC Perl_sv_pvbyten         Perl_sv_pvbyten
 0001:0005D6CC Perl_sv_pvbyten_force   Perl_sv_pvbyten_force
 0001:0005D4D0 Perl_sv_pvn             Perl_sv_pvn
 0001:0005D524 Perl_sv_pvn_force       Perl_sv_pvn_force
 0001:0005D558 Perl_sv_pvn_force_flags  Perl_sv_pvn_force_flags
 0001:0005D4F8 Perl_sv_pvn_nomg        Perl_sv_pvn_nomg
 0001:0005D6F0 Perl_sv_pvutf8          Perl_sv_pvutf8
 0001:0005D71C Perl_sv_pvutf8n         Perl_sv_pvutf8n
 0001:0005D73C Perl_sv_pvutf8n_force   Perl_sv_pvutf8n_force
 0001:00060348 Perl_sv_recode_to_utf8  Perl_sv_recode_to_utf8
 0001:0005D760 Perl_sv_reftype         Perl_sv_reftype
 0001:0005A3B8 Perl_sv_replace         Perl_sv_replace
 0001:00054B6C Perl_sv_report_used     Perl_sv_report_used
 0001:0005CE1C Perl_sv_reset           Perl_sv_reset
 0001:00059F3C Perl_sv_rvweaken        Perl_sv_rvweaken
 0001:00055DFC Perl_sv_setiv           Perl_sv_setiv
 0001:00055F04 Perl_sv_setiv_mg        Perl_sv_setiv_mg
 0001:00055FBC Perl_sv_setnv           Perl_sv_setnv
 0001:000560C0 Perl_sv_setnv_mg        Perl_sv_setnv_mg
 0001:000591AC Perl_sv_setpv           Perl_sv_setpv
 0001:0005DDD4 Perl_sv_setpvf          Perl_sv_setpvf
 0001:0005DE40 Perl_sv_setpvf_mg       Perl_sv_setpvf_mg
 0001:0005DD54 Perl_sv_setpviv         Perl_sv_setpviv
 0001:0005DD8C Perl_sv_setpviv_mg      Perl_sv_setpviv_mg
 0001:000590C0 Perl_sv_setpvn          Perl_sv_setpvn
 0001:00059184 Perl_sv_setpvn_mg       Perl_sv_setpvn_mg
 0001:0005926C Perl_sv_setpv_mg        Perl_sv_setpv_mg
 0001:0005DA50 Perl_sv_setref_iv       Perl_sv_setref_iv
 0001:0005DA98 Perl_sv_setref_nv       Perl_sv_setref_nv
 0001:0005DA04 Perl_sv_setref_pv       Perl_sv_setref_pv
 0001:0005DAC0 Perl_sv_setref_pvn      Perl_sv_setref_pvn
 0001:0005DA74 Perl_sv_setref_uv       Perl_sv_setref_uv
 0001:000582B0 Perl_sv_setsv           Perl_sv_setsv
 0001:00058380 Perl_sv_setsv_flags     Perl_sv_setsv_flags
 0001:0005906C Perl_sv_setsv_mg        Perl_sv_setsv_mg
 0001:00055F28 Perl_sv_setuv           Perl_sv_setuv
 0001:00055F58 Perl_sv_setuv_mg        Perl_sv_setuv_mg
 0001:0005DCD4 Perl_sv_taint           Perl_sv_taint
 0001:0005DD14 Perl_sv_tainted         Perl_sv_tainted
 0001:0005D3B8 Perl_sv_true            Perl_sv_true
 0001:00091B34 Perl_sv_uni_display     Perl_sv_uni_display
 0001:00059E40 Perl_sv_unmagic         Perl_sv_unmagic
 0001:0005DCC4 Perl_sv_unref           Perl_sv_unref
 0001:0005DC64 Perl_sv_unref_flags     Perl_sv_unref_flags
 0001:0005DCEC Perl_sv_untaint         Perl_sv_untaint
 0001:0005559C Perl_sv_upgrade         Perl_sv_upgrade
 0001:00059290 Perl_sv_usepvn          Perl_sv_usepvn
 0001:00059368 Perl_sv_usepvn_mg       Perl_sv_usepvn_mg
 0001:0005824C Perl_sv_utf8_decode     Perl_sv_utf8_decode
 0001:00058150 Perl_sv_utf8_downgrade  Perl_sv_utf8_downgrade
 0001:00058234 Perl_sv_utf8_encode     Perl_sv_utf8_encode
 0001:00058020 Perl_sv_utf8_upgrade    Perl_sv_utf8_upgrade
 0001:00058030 Perl_sv_utf8_upgrade_flags  Perl_sv_utf8_upgrade_flags
 0001:0005D468 Perl_sv_uv              Perl_sv_uv
 0001:0005DEE8 Perl_sv_vcatpvf         Perl_sv_vcatpvf
 0001:0005E0C0 Perl_sv_vcatpvfn        Perl_sv_vcatpvfn
 0001:0005DF54 Perl_sv_vcatpvf_mg      Perl_sv_vcatpvf_mg
 0001:0005DE00 Perl_sv_vsetpvf         Perl_sv_vsetpvf
 0001:0005DFA4 Perl_sv_vsetpvfn        Perl_sv_vsetpvfn
 0001:0005DE6C Perl_sv_vsetpvf_mg      Perl_sv_vsetpvf_mg
 0001:00091374 Perl_swash_fetch        Perl_swash_fetch
 0001:00090DD8 Perl_swash_init         Perl_swash_init
 0001:00092050 Perl_taint_env          Perl_taint_env
 0001:00091F10 Perl_taint_proper       Perl_taint_proper
 0001:0006B73C Perl_tmps_grow          Perl_tmps_grow
 0001:00090380 Perl_to_uni_fold        Perl_to_uni_fold
 0001:0009035C Perl_to_uni_lower       Perl_to_uni_lower
 0001:000904BC Perl_to_uni_lower_lc    Perl_to_uni_lower_lc
 0001:00090338 Perl_to_uni_title       Perl_to_uni_title
 0001:000904A0 Perl_to_uni_title_lc    Perl_to_uni_title_lc
 0001:00090314 Perl_to_uni_upper       Perl_to_uni_upper
 0001:00090484 Perl_to_uni_upper_lc    Perl_to_uni_upper_lc
 0001:00090B08 Perl_to_utf8_case       Perl_to_utf8_case
 0001:00090D4C Perl_to_utf8_fold       Perl_to_utf8_fold
 0001:00090D10 Perl_to_utf8_lower      Perl_to_utf8_lower
 0001:00090CD0 Perl_to_utf8_title      Perl_to_utf8_title
 0001:00090C90 Perl_to_utf8_upper      Perl_to_utf8_upper
 0001:0009E240 Perl_unpackstring       Perl_unpackstring
 0001:0009E1EC Perl_unpack_str         Perl_unpack_str
 0001:0004B94C Perl_unsharepvn         Perl_unsharepvn
 0001:0008FFD0 Perl_utf16_to_utf8      Perl_utf16_to_utf8
 0001:000900D4 Perl_utf16_to_utf8_reversed  Perl_utf16_to_utf8_reversed
 0001:00091988 Perl_utf8n_to_uvchr     Perl_utf8n_to_uvchr
 0001:0008F4A0 Perl_utf8n_to_uvuni     Perl_utf8n_to_uvuni
 0001:0008FC58 Perl_utf8_distance      Perl_utf8_distance
 0001:0008FD98 Perl_utf8_hop           Perl_utf8_hop
 0001:0008FB0C Perl_utf8_length        Perl_utf8_length
 0001:0008FDE0 Perl_utf8_to_bytes      Perl_utf8_to_bytes
 0001:0008FA3C Perl_utf8_to_uvchr      Perl_utf8_to_uvchr
 0001:0008FAA4 Perl_utf8_to_uvuni      Perl_utf8_to_uvuni
 0001:0009195C Perl_uvchr_to_utf8      Perl_uvchr_to_utf8
 0001:00091970 Perl_uvchr_to_utf8_flags  Perl_uvchr_to_utf8_flags
 0001:0008F0BC Perl_uvuni_to_utf8      Perl_uvuni_to_utf8
 0001:0008EF50 Perl_uvuni_to_utf8_flags  Perl_uvuni_to_utf8_flags
 0001:00041328 Perl_vcroak             Perl_vcroak
 0001:000922DC Perl_vdeb               Perl_vdeb
 0001:000409DC Perl_vform              Perl_vform
 0001:00028ABC Perl_vload_module       Perl_vload_module
 0001:00040AE0 Perl_vmess              Perl_vmess
 0001:0005CB64 Perl_vnewSVpvf          Perl_vnewSVpvf
 0001:00041710 Perl_vwarn              Perl_vwarn
 0001:00041A08 Perl_vwarner            Perl_vwarner
 0001:000419B4 Perl_warn               Perl_warn
 0001:000419DC Perl_warner             Perl_warner
 0001:000486F8 Perl_whichsig           Perl_whichsig
 0001:000A613C pExtFCN                 pExtFCN
 0002:00007844 PL_amagic_generation    PL_amagic_generation
 0002:00007C84 PL_AMG_names            PL_AMG_names
 0002:00007824 PL_an                   PL_an
 0002:000326CC PL_Argv                 PL_Argv
 0002:0003287C PL_argvgv               PL_argvgv
 0002:000303FC PL_argvoutgv            PL_argvoutgv
 0002:00032630 PL_argvout_stack        PL_argvout_stack
 0002:00030524 PL_av_fetch_sv          PL_av_fetch_sv
 0002:000300EC PL_basetime             PL_basetime
 0002:000328D8 PL_beginav              PL_beginav
 0002:0000785C PL_beginav_save         PL_beginav_save
 0002:000302CC PL_BINCOMPAT0           PL_BINCOMPAT0
 0002:0003027C PL_bitcount             PL_bitcount
 0002:000304BC PL_bodytarget           PL_bodytarget
 0002:0003270C PL_bostr                PL_bostr
 0002:00032724 PL_bufend               PL_bufend
 0002:0003284C PL_bufptr               PL_bufptr
 0002:00006CE0 PL_check                PL_check
 0002:000328BC PL_checkav              PL_checkav
 0002:00007878 PL_checkav_save         PL_checkav_save
 0002:000078B8 PL_chopset              PL_chopset
 0002:0000787C PL_clocktick            PL_clocktick
 0002:0003059C PL_Cmd                  PL_Cmd
 0002:00007848 PL_collation_ix         PL_collation_ix
 0002:00032634 PL_collation_name       PL_collation_name
 0002:0000784C PL_collation_standard   PL_collation_standard
 0002:00030604 PL_collxfrm_base        PL_collxfrm_base
 0002:00007850 PL_collxfrm_mult        PL_collxfrm_mult
 0002:00032854 PL_colors               PL_colors
 0002:00030304 PL_colorset             PL_colorset
 0002:0003286C PL_compcv               PL_compcv
 0002:00030354 PL_compiling            PL_compiling
 0002:000328EC PL_comppad              PL_comppad
 0002:000305E8 PL_comppad_name         PL_comppad_name
 0002:0000FFE4 PL_comppad_name_fill    PL_comppad_name_fill
 0002:00010000 PL_comppad_name_floor   PL_comppad_name_floor
 0002:000077F8 PL_copline              PL_copline
 0002:00007828 PL_cop_seqmax           PL_cop_seqmax
 0002:0000791C PL_csighandlerp         PL_csighandlerp
 0002:000078BC PL_curcop               PL_curcop
 0002:000077F4 PL_curcopdb             PL_curcopdb
 0002:000303A8 PL_curinterp            PL_curinterp
 0002:00032850 PL_curpad               PL_curpad
 0002:00032704 PL_curpm                PL_curpm
 0002:00030270 PL_curstack             PL_curstack
 0002:000305D0 PL_curstackinfo         PL_curstackinfo
 0002:000302D4 PL_curstash             PL_curstash
 0002:000303B0 PL_curstname            PL_curstname
 0002:000326DC PL_custom_op_descs      PL_custom_op_descs
 0002:000326E0 PL_custom_op_names      PL_custom_op_names
 0002:00032740 PL_dbargs               PL_dbargs
 0002:000326A4 PL_DBcv                 PL_DBcv
 0002:000326AC PL_DBgv                 PL_DBgv
 0002:00032734 PL_DBline               PL_DBline
 0002:00030214 PL_DBsignal             PL_DBsignal
 0002:000300F0 PL_DBsingle             PL_DBsingle
 0002:00032700 PL_DBsub                PL_DBsub
 0002:000328FC PL_DBtrace              PL_DBtrace
 0002:0003022C PL_debstash             PL_debstash
 0002:000326F0 PL_debug                PL_debug
 0002:000302D8 PL_debug_pad            PL_debug_pad
 0002:000326B4 PL_defgv                PL_defgv
 0002:000302C4 PL_defoutgv             PL_defoutgv
 0002:0003023C PL_defstash             PL_defstash
 0002:00007870 PL_def_layerlist        PL_def_layerlist
 0002:00030340 PL_delaymagic           PL_delaymagic
 0002:000328C4 PL_diehook              PL_diehook
 0002:000078C0 PL_dirty                PL_dirty
 0002:0003031C PL_doextract            PL_doextract
 0002:000304C4 PL_doswitches           PL_doswitches
 0002:00032738 PL_dowarn               PL_dowarn
 0002:00007914 PL_do_undump            PL_do_undump
 0002:000078C8 PL_dumpindent           PL_dumpindent
 0002:0003038C PL_efloatbuf            PL_efloatbuf
 0002:000304AC PL_efloatsize           PL_efloatsize
 0002:0003267C PL_egid                 PL_egid
 0002:00007874 PL_encoding             PL_encoding
 0002:00032698 PL_endav                PL_endav
 0002:000326F4 PL_envgv                PL_envgv
 0002:000326EC PL_errgv                PL_errgv
 0002:000078C4 PL_errors               PL_errors
 0002:0003054C PL_error_count          PL_error_count
 0002:00032680 PL_euid                 PL_euid
 0002:00007830 PL_evalseq              PL_evalseq
 0002:00030394 PL_eval_root            PL_eval_root
 0002:0003044C PL_eval_start           PL_eval_start
 0002:00007808 PL_exitlist             PL_exitlist
 0002:0000780C PL_exitlistlen          PL_exitlistlen
 0002:00030498 PL_exit_flags           PL_exit_flags
 0002:00007840 PL_expect               PL_expect
 0002:00030300 PL_extralen             PL_extralen
 0002:000302C8 PL_e_script             PL_e_script
 0002:000326D4 PL_fdpid                PL_fdpid
 0002:0001003C PL_filemode             PL_filemode
 0002:0000FFC4 PL_firstgv              PL_firstgv
 0001:00095155 PL_fold                 PL_fold
 0002:00005B64 PL_fold_locale          PL_fold_locale
 0002:0003051C PL_forkprocess          PL_forkprocess
 0002:000300F8 PL_formfeed             PL_formfeed
 0002:000304A8 PL_formtarget           PL_formtarget
 0001:00095255 PL_freq                 PL_freq
 0002:0000781C PL_generation           PL_generation
 0002:000077FC PL_gensym               PL_gensym
 0002:00030594 PL_gid                  PL_gid
 0002:00030514 PL_globalstash          PL_globalstash
 0002:00007858 PL_glob_index           PL_glob_index
 0002:0000789C PL_hash_seed            PL_hash_seed
 0002:000078A0 PL_hash_seed_set        PL_hash_seed_set
 0002:0000790C PL_hexdigit             PL_hexdigit
 0002:000305AC PL_he_arenaroot         PL_he_arenaroot
 0002:0000FFDC PL_he_root              PL_he_root
 0002:00032880 PL_hintgv               PL_hintgv
 0002:00032708 PL_hints                PL_hints
 0002:00032690 PL_hv_fetch_ent_mh      PL_hv_fetch_ent_mh
 0002:00030540 PL_hv_fetch_sv          PL_hv_fetch_sv
 0002:000326BC PL_incgv                PL_incgv
 0002:00032878 PL_initav               PL_initav
 0002:000328E4 PL_inplace              PL_inplace
 0002:00007821 PL_in_clean_all         PL_in_clean_all
 0002:00007820 PL_in_clean_objs        PL_in_clean_objs
 0002:00032908 PL_in_eval              PL_in_eval
 0002:00007880 PL_in_load_module       PL_in_load_module
 0002:00032710 PL_in_my                PL_in_my
 0002:0003055C PL_in_my_stash          PL_in_my_stash
 0002:0000786C PL_known_layers         PL_known_layers
 0002:00032870 PL_lastfd               PL_lastfd
 0002:0003061C PL_lastgotoprobe        PL_lastgotoprobe
 0002:000304B0 PL_lastscream           PL_lastscream
 0002:00007800 PL_laststatval          PL_laststatval
 0002:00007804 PL_laststype            PL_laststype
 0002:00030504 PL_last_in_gv           PL_last_in_gv
 0002:00030344 PL_last_lop             PL_last_lop
 0002:00030558 PL_last_lop_op          PL_last_lop_op
 0002:00032628 PL_last_swash_hv        PL_last_swash_hv
 0002:00032668 PL_last_swash_key       PL_last_swash_key
 0002:000326A8 PL_last_swash_klen      PL_last_swash_klen
 0002:000326E4 PL_last_swash_slen      PL_last_swash_slen
 0002:000326FC PL_last_swash_tmps      PL_last_swash_tmps
 0002:00030324 PL_last_uni             PL_last_uni
 0002:00030608 PL_lex_brackets         PL_lex_brackets
 0002:0003264C PL_lex_brackstack       PL_lex_brackstack
 0002:00030614 PL_lex_casemods         PL_lex_casemods
 0002:00030600 PL_lex_casestack        PL_lex_casestack
 0002:00030404 PL_lex_defer            PL_lex_defer
 0002:000304F8 PL_lex_dojoin           PL_lex_dojoin
 0002:000304EC PL_lex_expect           PL_lex_expect
 0002:00032624 PL_lex_formbrack        PL_lex_formbrack
 0002:00030424 PL_lex_inpat            PL_lex_inpat
 0002:000304FC PL_lex_inwhat           PL_lex_inwhat
 0002:00032898 PL_lex_op               PL_lex_op
 0002:00030400 PL_lex_repl             PL_lex_repl
 0002:00030500 PL_lex_starts           PL_lex_starts
 0002:000304A0 PL_lex_state            PL_lex_state
 0002:0003045C PL_lex_stuff            PL_lex_stuff
 0002:00032904 PL_lineary              PL_lineary
 0002:00030320 PL_linestart            PL_linestart
 0002:000328F4 PL_linestr              PL_linestr
 0002:0003041C PL_localizing           PL_localizing
 0002:00030590 PL_localpatches         PL_localpatches
 0002:00007888 PL_lockhook             PL_lockhook
 0002:00030248 PL_mainstack            PL_mainstack
 0002:00032914 PL_main_cv              PL_main_cv
 0002:000303AC PL_main_root            PL_main_root
 0002:00030468 PL_main_start           PL_main_start
 0002:00030254 PL_markstack            PL_markstack
 0002:000305B4 PL_markstack_max        PL_markstack_max
 0002:000305FC PL_markstack_ptr        PL_markstack_ptr
 0002:00007834 PL_maxo                 PL_maxo
 0002:000078CC PL_maxscream            PL_maxscream
 0002:000077E8 PL_maxsysfd             PL_maxsysfd
 0002:0000FFFC PL_max_intro_pending    PL_max_intro_pending
 0002:0000FFD8 PL_mess_sv              PL_mess_sv
 0002:0000FFA0 PL_minus_a              PL_minus_a
 0002:0000FFA8 PL_minus_c              PL_minus_c
 0002:0000FFC0 PL_minus_F              PL_minus_F
 0002:0000FFCC PL_minus_l              PL_minus_l
 0002:0000FFD0 PL_minus_n              PL_minus_n
 0002:0000FFD4 PL_minus_p              PL_minus_p
 0002:0000FFF8 PL_min_intro_pending    PL_min_intro_pending
 0002:00030240 PL_modcount             PL_modcount
 0002:000300FC PL_modglobal            PL_modglobal
 0002:000303F8 PL_multiline            PL_multiline
 0002:00030544 PL_multi_close          PL_multi_close
 0002:00030410 PL_multi_end            PL_multi_end
 0002:000304E4 PL_multi_open           PL_multi_open
 0002:00030560 PL_multi_start          PL_multi_start
 0002:00030564 PL_na                   PL_na
 0002:000302B8 PL_nexttoke             PL_nexttoke
 0002:00030328 PL_nexttype             PL_nexttype
 0002:0000FFAC PL_nextval              PL_nextval
 0002:00030444 PL_nice_chunk           PL_nice_chunk
 0002:000326A0 PL_nice_chunk_size      PL_nice_chunk_size
 0002:00007908 PL_No                   PL_No
 0002:000328E0 PL_nomemok              PL_nomemok
 0001:00094EE1 PL_no_aelem             PL_no_aelem
 0001:00094FE6 PL_no_dir_func          PL_no_dir_func
 0001:00095011 PL_no_func              PL_no_func
 0001:00094F23 PL_no_helem             PL_no_helem
 0001:00094F92 PL_no_mem               PL_no_mem
 0001:00094F66 PL_no_modify            PL_no_modify
 0001:00095032 PL_no_myglob            PL_no_myglob
 0001:00094FA2 PL_no_security          PL_no_security
 0001:00094FBE PL_no_sock_func         PL_no_sock_func
 0001:00094E74 PL_no_symref            PL_no_symref
 0001:00094EB4 PL_no_usym              PL_no_usym
 0001:00094E59 PL_no_wrongref          PL_no_wrongref
 0002:000305C4 PL_nrs                  PL_nrs
 0002:000303A4 PL_nullstash            PL_nullstash
 0002:00032678 PL_numeric_compat1      PL_numeric_compat1
 0002:00007855 PL_numeric_local        PL_numeric_local
 0002:000305BC PL_numeric_name         PL_numeric_name
 0002:0000FFE8 PL_numeric_radix_sv     PL_numeric_radix_sv
 0002:00007854 PL_numeric_standard     PL_numeric_standard
 0002:000326C8 PL_ofmt                 PL_ofmt
 0002:0003289C PL_ofs_sv               PL_ofs_sv
 0002:0003030C PL_oldbufptr            PL_oldbufptr
 0002:000328D0 PL_oldname              PL_oldname
 0002:000305F4 PL_oldoldbufptr         PL_oldoldbufptr
 0002:00030568 PL_op                   PL_op
 0002:00007260 PL_opargs               PL_opargs
 0002:000061E4 PL_op_desc              PL_op_desc
 0002:000077F0 PL_op_mask              PL_op_mask
 0002:00005C64 PL_op_name              PL_op_name
 0002:0000782C PL_op_seqmax            PL_op_seqmax
 0002:00030220 PL_origalen             PL_origalen
 0002:00010048 PL_origargc             PL_origargc
 0002:00030264 PL_origargv             PL_origargv
 0002:00030518 PL_origenviron          PL_origenviron
 0002:00030588 PL_origfilename         PL_origfilename
 0002:000328AC PL_ors_sv               PL_ors_sv
 0002:0003272C PL_osname               PL_osname
 0002:000326C0 PL_padix                PL_padix
 0002:00030510 PL_padix_floor          PL_padix_floor
 0002:0000FFE0 PL_pad_reset_pending    PL_pad_reset_pending
 0002:0003046C PL_patchlevel           PL_patchlevel
 0002:00007910 PL_patleave             PL_patleave
 0002:000078E0 PL_peepp                PL_peepp
 0002:00030610 PL_pending_ident        PL_pending_ident
 0002:00032744 PL_perldb               PL_perldb
 0002:00007868 PL_perlio               PL_perlio
 0002:000077E4 PL_perl_destruct_level  PL_perl_destruct_level
 0002:00030420 PL_pidstatus            PL_pidstatus
 0002:00006764 PL_ppaddr               PL_ppaddr
 0002:000303A0 PL_preambleav           PL_preambleav
 0002:00030210 PL_preambled            PL_preambled
 0002:00030440 PL_preprocess           PL_preprocess
 0002:00007810 PL_profiledata          PL_profiledata
 0002:000302BC PL_psig_name            PL_psig_name
 0002:00030308 PL_psig_pend            PL_psig_pend
 0002:000302FC PL_psig_ptr             PL_psig_ptr
 0002:0000FFA4 PL_reentrant_retint     PL_reentrant_retint
 0002:00032714 PL_regbol               PL_regbol
 0002:0003269C PL_regcc                PL_regcc
 0002:000328B0 PL_regcode              PL_regcode
 0002:000302B4 PL_regcompat1           PL_regcompat1
 0002:000078E4 PL_regcompp             PL_regcompp
 0002:0003262C PL_regcomp_parse        PL_regcomp_parse
 0002:000304D4 PL_regcomp_rx           PL_regcomp_rx
 0002:000328B4 PL_regdata              PL_regdata
 0002:0003026C PL_regdummy             PL_regdummy
 0002:000328C0 PL_regendp              PL_regendp
 0002:00032728 PL_regeol               PL_regeol
 0002:000078E8 PL_regexecp             PL_regexecp
 0002:0003021C PL_regflags             PL_regflags
 0002:000078F4 PL_regfree              PL_regfree
 0002:000078D0 PL_regindent            PL_regindent
 0002:000302C0 PL_reginput             PL_reginput
 0002:000078F8 PL_reginterp_cnt        PL_reginterp_cnt
 0002:000078EC PL_regint_start         PL_regint_start
 0002:000078F0 PL_regint_string        PL_regint_string
 0001:00031398 PL_regkind              PL_regkind
 0002:000328F0 PL_reglastcloseparen    PL_reglastcloseparen
 0002:000305C8 PL_reglastparen         PL_reglastparen
 0002:0003042C PL_regnarrate           PL_regnarrate
 0002:00030460 PL_regnaughty           PL_regnaughty
 0002:000328F8 PL_regnpar              PL_regnpar
 0002:00030494 PL_regprecomp           PL_regprecomp
 0002:000304B8 PL_regprogram           PL_regprogram
 0002:00030418 PL_regsawback           PL_regsawback
 0002:00032910 PL_regseen              PL_regseen
 0002:00032918 PL_regsize              PL_regsize
 0002:00030414 PL_regstartp            PL_regstartp
 0002:00032954 PL_regtill              PL_regtill
 0002:00032950 PL_regxend              PL_regxend
 0002:0003053C PL_reg_call_cc          PL_reg_call_cc
 0002:000078D8 PL_reg_curpm            PL_reg_curpm
 0002:00030618 PL_reg_eval_set         PL_reg_eval_set
 0002:00030390 PL_reg_flags            PL_reg_flags
 0002:00030350 PL_reg_ganch            PL_reg_ganch
 0002:00030620 PL_reg_leftiter         PL_reg_leftiter
 0002:0003039C PL_reg_magic            PL_reg_magic
 0002:00032664 PL_reg_match_utf8       PL_reg_match_utf8
 0002:00030550 PL_reg_maxiter          PL_reg_maxiter
 0002:000078D4 PL_reg_oldcurpm         PL_reg_oldcurpm
 0002:000304DC PL_reg_oldpos           PL_reg_oldpos
 0002:000305EC PL_reg_oldsaved         PL_reg_oldsaved
 0002:00032684 PL_reg_oldsavedlen      PL_reg_oldsavedlen
 0002:000078DC PL_reg_poscache         PL_reg_poscache
 0002:0000FFF4 PL_reg_poscache_size    PL_reg_poscache_size
 0002:0003288C PL_reg_re               PL_reg_re
 0002:000078FC PL_reg_starttry         PL_reg_starttry
 0002:00032650 PL_reg_start_tmp        PL_reg_start_tmp
 0002:00032674 PL_reg_start_tmpl       PL_reg_start_tmpl
 0002:00032894 PL_reg_sv               PL_reg_sv
 0002:000326F8 PL_reg_whilem_seen      PL_reg_whilem_seen
 0002:000078A4 PL_rehash_seed          PL_rehash_seed
 0002:000078A8 PL_rehash_seed_set      PL_rehash_seed_set
 0002:00032848 PL_replgv               PL_replgv
 0002:00030434 PL_restartop            PL_restartop
 0002:00030260 PL_retstack             PL_retstack
 0002:00030548 PL_retstack_ix          PL_retstack_ix
 0002:000305F8 PL_retstack_max         PL_retstack_max
 0002:0003056C PL_rs                   PL_rs
 0002:00007814 PL_rsfp                 PL_rsfp
 0002:00007818 PL_rsfp_filters         PL_rsfp_filters
 0002:0000783C PL_runops               PL_runops
 0002:00007898 PL_runops_dbg           PL_runops_dbg
 0002:00007894 PL_runops_std           PL_runops_std
 0002:00007864 PL_savebegin            PL_savebegin
 0002:00030234 PL_savestack            PL_savestack
 0002:000305B8 PL_savestack_ix         PL_savestack_ix
 0002:000305A0 PL_savestack_max        PL_savestack_max
 0002:0003058C PL_sawampersand         PL_sawampersand
 0002:00030454 PL_scopestack           PL_scopestack
 0002:0003060C PL_scopestack_ix        PL_scopestack_ix
 0002:00032660 PL_scopestack_max       PL_scopestack_max
 0002:0003050C PL_screamfirst          PL_screamfirst
 0002:00030430 PL_screamnext           PL_screamnext
 0002:00030268 PL_secondgv             PL_secondgv
 0002:00030438 PL_seen_evals           PL_seen_evals
 0002:000305D8 PL_seen_zerolen         PL_seen_zerolen
 0002:00007884 PL_sharehook            PL_sharehook
 0002:00007918 PL_sh_path              PL_sh_path
 0002:00007838 PL_sh_path_compat       PL_sh_path_compat
 0002:000305B0 PL_sigfpe_saved         PL_sigfpe_saved
 0002:00030508 PL_sighandlerp          PL_sighandlerp
 0002:0003290C PL_signals              PL_signals
 0002:00005A6C PL_sig_name             PL_sig_name
 0002:00005AE8 PL_sig_num              PL_sig_num
 0002:00007860 PL_sig_pending          PL_sig_pending
 0001:00031463 PL_simple               PL_simple
 0002:0000FFC8 PL_sortcop              PL_sortcop
 0002:00030408 PL_sortcxix             PL_sortcxix
 0002:00030428 PL_sortstash            PL_sortstash
 0002:000305D4 PL_sort_RealCmp         PL_sort_RealCmp
 0002:000077E0 PL_splitstr             PL_splitstr
 0002:00030584 PL_srand_called         PL_srand_called
 0002:00030348 PL_stack_base           PL_stack_base
 0002:00030230 PL_stack_max            PL_stack_max
 0002:00030250 PL_stack_sp             PL_stack_sp
 0002:000303B4 PL_start_env            PL_start_env
 0002:0003040C PL_stashcache           PL_stashcache
 0002:0003291C PL_statbuf              PL_statbuf
 0002:00030280 PL_statcache            PL_statcache
 0002:00032874 PL_statgv               PL_statgv
 0002:000078B4 PL_statname             PL_statname
 0002:00030520 PL_statusvalue          PL_statusvalue
 0002:0003025C PL_stderrgv             PL_stderrgv
 0002:00032900 PL_stdingv              PL_stdingv
 0002:00032884 PL_strtab               PL_strtab
 0002:00030528 PL_sublex_info          PL_sublex_info
 0002:000328DC PL_subline              PL_subline
 0002:000328E8 PL_subname              PL_subname
 0002:000077EC PL_sub_generation       PL_sub_generation
 0002:00030570 PL_Sv                   PL_Sv
 0002:000305C0 PL_sv_arenaroot         PL_sv_arenaroot
 0002:0003033C PL_sv_count             PL_sv_count
 0002:00032718 PL_sv_no                PL_sv_no
 0002:00030554 PL_sv_objcount          PL_sv_objcount
 0002:00032638 PL_sv_placeholder       PL_sv_placeholder
 0002:0000FFEC PL_sv_root              PL_sv_root
 0002:00030310 PL_sv_undef             PL_sv_undef
 0002:000328A0 PL_sv_yes               PL_sv_yes
 0002:000328D4 PL_tainted              PL_tainted
 0002:00030228 PL_tainting             PL_tainting
 0002:0003049C PL_taint_warn           PL_taint_warn
 0002:00007890 PL_threadhook           PL_threadhook
 0002:00030200 PL_timesbuf             PL_timesbuf
 0002:000078B0 PL_tmps_floor           PL_tmps_floor
 0002:000078AC PL_tmps_ix              PL_tmps_ix
 0002:00030398 PL_tmps_max             PL_tmps_max
 0002:000304C0 PL_tmps_stack           PL_tmps_stack
 0002:00030100 PL_tokenbuf             PL_tokenbuf
 0002:0003034C PL_toptarget            PL_toptarget
 0002:0000FFF0 PL_top_env              PL_top_env
 0002:000305A8 PL_uid                  PL_uid
 0002:000328B8 PL_unicode              PL_unicode
 0002:0000788C PL_unlockhook           PL_unlockhook
 0002:00032730 PL_unsafe               PL_unsafe
 0002:00010034 PL_utf8locale           PL_utf8locale
 0001:00094CB4 PL_utf8skip             PL_utf8skip
 0002:00030218 PL_utf8_alnum           PL_utf8_alnum
 0002:000304A4 PL_utf8_alnumc          PL_utf8_alnumc
 0002:000300F4 PL_utf8_alpha           PL_utf8_alpha
 0002:00010044 PL_utf8_ascii           PL_utf8_ascii
 0002:00030238 PL_utf8_cntrl           PL_utf8_cntrl
 0002:0001004C PL_utf8_digit           PL_utf8_digit
 0002:00010040 PL_utf8_graph           PL_utf8_graph
 0002:00030448 PL_utf8_idcont          PL_utf8_idcont
 0002:0003057C PL_utf8_idstart         PL_utf8_idstart
 0002:00030278 PL_utf8_lower           PL_utf8_lower
 0002:00010030 PL_utf8_mark            PL_utf8_mark
 0002:00030224 PL_utf8_print           PL_utf8_print
 0002:00030244 PL_utf8_punct           PL_utf8_punct
 0002:00010038 PL_utf8_space           PL_utf8_space
 0002:00030490 PL_utf8_tofold          PL_utf8_tofold
 0002:00030578 PL_utf8_tolower         PL_utf8_tolower
 0002:00030574 PL_utf8_totitle         PL_utf8_totitle
 0002:00030580 PL_utf8_toupper         PL_utf8_toupper
 0002:0003024C PL_utf8_upper           PL_utf8_upper
 0002:000304B4 PL_utf8_xdigit          PL_utf8_xdigit
 0002:00032748 PL_uudmap               PL_uudmap
 0001:0009507C PL_uuemap               PL_uuemap
 0001:00031452 PL_varies               PL_varies
 0002:00007BF8 PL_vtbl_amagic          PL_vtbl_amagic
 0002:00007C14 PL_vtbl_amagicelem      PL_vtbl_amagicelem
 0002:00007A38 PL_vtbl_arylen          PL_vtbl_arylen
 0002:00007B18 PL_vtbl_bm              PL_vtbl_bm
 0002:00007BDC PL_vtbl_collxfrm        PL_vtbl_collxfrm
 0002:000079E4 PL_vtbl_dbline          PL_vtbl_dbline
 0002:00007B6C PL_vtbl_defelem         PL_vtbl_defelem
 0002:0000793C PL_vtbl_env             PL_vtbl_env
 0002:00007958 PL_vtbl_envelem         PL_vtbl_envelem
 0002:00007B34 PL_vtbl_fm              PL_vtbl_fm
 0002:00007A54 PL_vtbl_glob            PL_vtbl_glob
 0002:00007A00 PL_vtbl_isa             PL_vtbl_isa
 0002:00007A1C PL_vtbl_isaelem         PL_vtbl_isaelem
 0002:00007A70 PL_vtbl_mglob           PL_vtbl_mglob
 0002:00007A8C PL_vtbl_nkeys           PL_vtbl_nkeys
 0002:000079AC PL_vtbl_pack            PL_vtbl_pack
 0002:000079C8 PL_vtbl_packelem        PL_vtbl_packelem
 0002:00007AFC PL_vtbl_pos             PL_vtbl_pos
 0002:00007BA4 PL_vtbl_regdata         PL_vtbl_regdata
 0002:00007BC0 PL_vtbl_regdatum        PL_vtbl_regdatum
 0002:00007B88 PL_vtbl_regexp          PL_vtbl_regexp
 0002:00007974 PL_vtbl_sig             PL_vtbl_sig
 0002:00007990 PL_vtbl_sigelem         PL_vtbl_sigelem
 0002:00007AC4 PL_vtbl_substr          PL_vtbl_substr
 0002:00007920 PL_vtbl_sv              PL_vtbl_sv
 0002:00007AA8 PL_vtbl_taint           PL_vtbl_taint
 0002:00007B50 PL_vtbl_uvar            PL_vtbl_uvar
 0002:00007AE0 PL_vtbl_vec             PL_vtbl_vec
 0002:00030274 PL_warnhook             PL_warnhook
 0001:00094E2A PL_warn_nl              PL_warn_nl
 0001:00094DD3 PL_warn_nosemi          PL_warn_nosemi
 0001:00094DF1 PL_warn_reserved        PL_warn_reserved
 0001:00094DB4 PL_warn_uninit          PL_warn_uninit
 0002:000305A4 PL_widesyscalls         PL_widesyscalls
 0002:00032648 PL_xiv_arenaroot        PL_xiv_arenaroot
 0002:0003043C PL_xiv_root             PL_xiv_root
 0002:00032654 PL_xnv_arenaroot        PL_xnv_arenaroot
 0002:00030450 PL_xnv_root             PL_xnv_root
 0002:000305E0 PL_Xpv                  PL_Xpv
 0002:0003268C PL_xpvav_arenaroot      PL_xpvav_arenaroot
 0002:000304CC PL_xpvav_root           PL_xpvav_root
 0002:00032688 PL_xpvbm_arenaroot      PL_xpvbm_arenaroot
 0002:000304C8 PL_xpvbm_root           PL_xpvbm_root
 0002:00032694 PL_xpvcv_arenaroot      PL_xpvcv_arenaroot
 0002:000304D0 PL_xpvcv_root           PL_xpvcv_root
 0002:000326B0 PL_xpvhv_arenaroot      PL_xpvhv_arenaroot
 0002:000304D8 PL_xpvhv_root           PL_xpvhv_root
 0002:000326B8 PL_xpviv_arenaroot      PL_xpviv_arenaroot
 0002:000304E0 PL_xpviv_root           PL_xpviv_root
 0002:000326D0 PL_xpvlv_arenaroot      PL_xpvlv_arenaroot
 0002:000304F0 PL_xpvlv_root           PL_xpvlv_root
 0002:000326C4 PL_xpvmg_arenaroot      PL_xpvmg_arenaroot
 0002:000304E8 PL_xpvmg_root           PL_xpvmg_root
 0002:000326D8 PL_xpvnv_arenaroot      PL_xpvnv_arenaroot
 0002:000304F4 PL_xpvnv_root           PL_xpvnv_root
 0002:00032658 PL_xpv_arenaroot        PL_xpv_arenaroot
 0002:00030458 PL_xpv_root             PL_xpv_root
 0002:0003265C PL_xrv_arenaroot        PL_xrv_arenaroot
 0002:00030464 PL_xrv_root             PL_xrv_root
 0002:00007904 PL_Yes                  PL_Yes
 0002:0003273C PL_yychar               PL_yychar
 0002:000328C8 PL_yydebug              PL_yydebug
 0002:000302D0 PL_yyerrflag            PL_yyerrflag
 0002:00032888 PL_yylval               PL_yylval
 0002:00032958 PL_yynerrs              PL_yynerrs
 0002:000326E8 PL_yyval                PL_yyval
 0002:00030470 PMWIN_entries           PMWIN_entries
 0001:00008ADC realloc                 Perl_realloc
 0001:000A9A78 ResetWinError           ResetWinError
 0001:000B0CDC setgrent                setgrent
 0001:000AD75C XS_Cwd_change_drive     XS_Cwd_change_drive
 0001:000AD5B8 XS_Cwd_current_drive    XS_Cwd_current_drive
 0001:000AE148 XS_Cwd_extLibpath       XS_Cwd_extLibpath
 0001:000AE2E4 XS_Cwd_extLibpath_set   XS_Cwd_extLibpath_set
 0001:000ADBE0 XS_Cwd_sys_abspath      XS_Cwd_sys_abspath
 0001:000AD680 XS_Cwd_sys_chdir        XS_Cwd_sys_chdir
 0001:000ADB0C XS_Cwd_sys_cwd          XS_Cwd_sys_cwd
 0001:000AD858 XS_Cwd_sys_is_absolute  XS_Cwd_sys_is_absolute
 0001:000ADA38 XS_Cwd_sys_is_relative  XS_Cwd_sys_is_relative
 0001:000AD958 XS_Cwd_sys_is_rooted    XS_Cwd_sys_is_rooted
 0001:000A960C XS_DynaLoader_mod2fname  XS_DynaLoader_mod2fname
 0001:000A8BE0 XS_File__Copy_syscopy   XS_File__Copy_syscopy

  Address         Publics by Name

 0001:000B2144       accept
 0001:000AAF98       async_mssleep
 0000:00000000  Imp  atan2                (EMXLIBCM.903)
 0000:00000000  Imp  atexit               (EMXLIBCM.703)
 0000:00000000  Imp  atoi                 (EMXLIBCM.705)
 0001:000B21A8       bind
 0001:000B1F30       boot_DynaLoader
 0001:000B0158       check_emx_runtime
 0000:00000000  Imp  clearerr             (EMXLIBCM.503)
 0001:000B21D4       connect
 0000:00000000  Imp  cos                  (EMXLIBCM.906)
 0001:000A9ACC       CroakWinError
 0001:000A60E0       croak_with_os2error
 0001:000B2B24       crypt
 0001:000B2AB4       crypt_r
 0001:000A8914       ctermid
 0001:000A9FB0       dir_subst
 0001:000B162C       dlclose
 0001:000B1574       dlerror
 0001:000B12A8       dlopen
 0001:000B14D8       dlsym
 0000:00000000  Imp  DosAsyncTimer        (DOSCALLS.350)
 0000:00000000  Imp  DosBeep              (DOSCALLS.286)
 0000:00000000  Imp  DosCloseEventSem     (DOSCALLS.326)
 0000:00000000  Imp  DosCloseMutexSem     (DOSCALLS.333)
 0000:00000000  Imp  DosCopy              (DOSCALLS.258)
 0000:00000000  Imp  DosCreateEventSem    (DOSCALLS.324)
 0000:00000000  Imp  DosCreateMutexSem    (DOSCALLS.331)
 0000:00000000  Imp  DosEnterCritSec      (DOSCALLS.232)
 0000:00000000  Imp  DosEnterMustComplete (DOSCALLS.380)
 0000:00000000  Imp  DosError             (DOSCALLS.212)
 0000:00000000  Imp  DosExit              (DOSCALLS.234)
 0000:00000000  Imp  DosExitCritSec       (DOSCALLS.233)
 0000:00000000  Imp  DosExitMustComplete  (DOSCALLS.381)
 0000:00000000  Imp  DosFreeModule        (DOSCALLS.322)
 0000:00000000  Imp  DosGetInfoBlocks     (DOSCALLS.312)
 0001:000B4B38       DosGetMessage
 0000:00000000  Imp  DosLoadModule        (DOSCALLS.318)
 0000:00000000  Imp  DosOpenMutexSem      (DOSCALLS.332)
 0000:00000000  Imp  DosQueryAppType      (DOSCALLS.323)
 0000:00000000  Imp  DosQueryHType        (DOSCALLS.224)
 0000:00000000  Imp  DosQueryModuleName   (DOSCALLS.320)
 0000:00000000  Imp  DosQueryProcAddr     (DOSCALLS.321)
 0000:00000000  Imp  DosQueryProcType     (DOSCALLS.586)
 0000:00000000  Imp  DosQuerySysInfo      (DOSCALLS.348)
 0000:00000000  Imp  DosQuerySysState     (DOSCALLS.368)
 0000:00000000  Imp  DosReleaseMutexSem   (DOSCALLS.335)
 0000:00000000  Imp  DosRequestMutexSem   (DOSCALLS.334)
 0000:00000000  Imp  DosSetExceptionHandler (DOSCALLS.354)
 0000:00000000  Imp  DosSetFileLocks      (DOSCALLS.428)
 0000:00000000  Imp  DosSetPriority       (DOSCALLS.236)
 0000:00000000  Imp  DosSetRelMaxFH       (DOSCALLS.382)
 0000:00000000  Imp  DosSleep             (DOSCALLS.229)
 0000:00000000  Imp  DosSuppressPopUps    (DOSCALLS.114)
 0000:00000000  Imp  DosTrueGetMessage    (MSG.6)
 0000:00000000  Imp  DosUnsetExceptionHandler (DOSCALLS.355)
 0000:00000000  Imp  DosWaitEventSem      (DOSCALLS.329)
 0000:00000000  Imp  DosWrite             (DOSCALLS.282)
 0001:000A7FD8       do_spawn3
 0001:000A8600       do_spawn_nowait
 0001:000A736C       do_spawn_ve
 0001:000B0824       dup
 0001:000B07E4       dup2
 0001:000B4858       encrypt
 0001:000B469C       encrypt_r
 0001:000B0CE8       endgrent
 0001:000A6CF8       endhostent
 0001:000A6D08       endnetent
 0001:000A6D18       endprotoent
 0001:000A6D28       endservent
 0000:00000000  Imp  exit                 (EMXLIBCM.712)
 0000:00000000  Imp  exp                  (EMXLIBCM.908)
 0001:000AE000       ExtLIBPATH
 0000:00000000  Imp  fclose               (EMXLIBCM.509)
 0001:000B2B3C       fcrypt
 0001:000B0790       fd_ok
 0000:00000000  Imp  fflush               (EMXLIBCM.513)
 0000:00000000  Imp  fgetc                (EMXLIBCM.514)
 0001:000AE414       fill_extLibpath
 0001:000B1198       find_myself
 0000:00000000  Imp  floor                (EMXLIBCM.910)
 0000:00000000  Imp  fmod                 (EMXLIBCM.911)
 0000:00000000  Imp  fopen                (EMXLIBCM.520)
 0001:000B0F38       fork_with_resources
 0000:00000000  Imp  fprintf              (EMXLIBCM.521)
 0000:00000000  Imp  fread                (EMXLIBCM.525)
 0000:00000000  Imp  free                 (EMXLIBCM.401)
 0000:00000000  Imp  freopen              (EMXLIBCM.526)
 0000:00000000  Imp  frexp                (EMXLIBCM.912)
 0000:00000000  Imp  fseek                (EMXLIBCM.528)
 0000:00000000  Imp  ftell                (EMXLIBCM.532)
 0000:00000000  Imp  fwrite               (EMXLIBCM.534)
 0001:000B0DC0       gcvt_os2
 0000:00000000  Imp  getenv               (EMXLIBCM.716)
 0001:000B0CEC       getgrent
 0001:000B2288       gethostbyaddr
 0001:000B230C       gethostbyname
 0001:000A6C58       gethostent
 0001:000B2380       getnetbyaddr
 0001:000B23B8       getnetbyname
 0001:000A6C68       getnetent
 0001:000B2200       getpeername
 0001:000A6FF8       getpriority
 0001:000B23F0       getprotobyname
 0001:000B2428       getprotobynumber
 0001:000A6C78       getprotoent
 0001:000B2460       getservbyname
 0001:000B249C       getservbyport
 0001:000A6C88       getservent
 0001:000B222C       getsockname
 0001:000B2258       getsockopt
 0001:000A6D58       get_sysinfo
 0000:00000000  Imp  gmtime               (EMXLIBCM.1006)
 0002:000086BC       h_errno
 0001:000B1168       InfoTable
 0001:000B2768       initstate
 0001:000B40C0       init_des
 0001:000A6C30       init_PMWIN_entries
 0001:000B24D8       listen
 0001:000A6A68       loadByOrdinal
 0001:000A6850       loadModule
 0000:00000000  Imp  localtime            (EMXLIBCM.1007)
 0000:00000000  Imp  log                  (EMXLIBCM.915)
 0000:00000000  Imp  longjmp              (EMXLIBCM.730)
 0001:000B164C       main
 0000:00000000  Imp  malloc               (EMXLIBCM.402)
 0002:00000204       MallocCfgP_ptr
 0002:000001C8       MallocCfg_ptr
 0000:00000000  Imp  memchr               (EMXLIBCM.205)
 0000:00000000  Imp  memcpy               (EMXLIBCM.207)
 0000:00000000  Imp  memmove              (EMXLIBCM.209)
 0000:00000000  Imp  memset               (EMXLIBCM.210)
 0001:000A93C8       mod2fname
 0000:00000000  Imp  modf                 (EMXLIBCM.917)
 0001:000B1150       msCounter
 0001:000B1064       myDosGetInfoSeg
 0001:000B0C9C       my_endpwent
 0001:000B0A3C       my_flock
 0001:000B0CAC       my_getpwent
 0001:000B0D8C       my_getpwnam
 0001:000B0D78       my_getpwuid
 0001:000B0988       my_mkdir
 0001:000B08EC       my_rmdir
 0001:000B0C80       my_setpwent
 0001:00042A78       my_syspclose
 0001:000A8650       my_syspopen
 0001:000B08A8       my_tmpfile
 0001:000B085C       my_tmpnam
 0001:000A9774       os2error
 0001:000A8628       os2exec
 0001:000A8484       os2_aspawn4
 0001:000A8A80       os2_chmod
 0001:000A85B8       os2_do_aspawn
 0001:000A85EC       os2_do_spawn
 0001:000A9CE0       os2_execname
 0001:000A8A50       os2_fstat
 0002:00010008       OS2_Perl_data
 0001:000A8974       os2_stat
 0002:00010004       pDevCloseDC
 0002:00032890       pDevOpenDC
 0002:00030258       pDevQueryCaps
 0002:000305DC       pDosTmrQueryFreq
 0002:000305F0       pDosTmrQueryTime
 0002:000305E4       pDosVerifyPidTid
 0001:000A8EF0       perfSysCall
 0001:00097B64       PerlIOBase_binmode
 0001:00098D18       PerlIOBase_clearerr
 0001:00098C5C       PerlIOBase_close
 0001:00098D8C       PerlIOBase_dup
 0001:00098CD8       PerlIOBase_eof
 0001:00098CF8       PerlIOBase_error
 0001:000989F0       PerlIOBase_fileno
 0001:000984DC       PerlIOBase_flush_linebuf
 0001:00098C54       PerlIOBase_noop_fail
 0001:00098C50       PerlIOBase_noop_ok
 0001:00098B40       PerlIOBase_popped
 0001:00098A70       PerlIOBase_pushed
 0001:00098B88       PerlIOBase_read
 0001:00098D3C       PerlIOBase_setlinebuf
 0001:00098B48       PerlIOBase_unread
 0001:0009A594       PerlIOBuf_bufsiz
 0001:0009A4A8       PerlIOBuf_close
 0001:0009A5E8       PerlIOBuf_dup
 0001:0009A054       PerlIOBuf_fill
 0001:00099F30       PerlIOBuf_flush
 0001:0009A53C       PerlIOBuf_get_base
 0001:0009A50C       PerlIOBuf_get_cnt
 0001:0009A4F0       PerlIOBuf_get_ptr
 0001:00099D88       PerlIOBuf_open
 0001:0009A460       PerlIOBuf_popped
 0001:00099D30       PerlIOBuf_pushed
 0001:0009A1AC       PerlIOBuf_read
 0001:0009A3D4       PerlIOBuf_seek
 0001:0009A5B8       PerlIOBuf_set_ptrcnt
 0001:0009A41C       PerlIOBuf_tell
 0001:0009A1E4       PerlIOBuf_unread
 0001:0009A2B8       PerlIOBuf_write
 0001:0009AB20       PerlIOCrlf_binmode
 0001:0009AAFC       PerlIOCrlf_flush
 0001:0009A8B0       PerlIOCrlf_get_cnt
 0001:0009A758       PerlIOCrlf_pushed
 0001:0009A998       PerlIOCrlf_set_ptrcnt
 0001:0009A7B8       PerlIOCrlf_unread
 0001:0009AA00       PerlIOCrlf_write
 0001:0009A618       PerlIOPending_close
 0001:0009A608       PerlIOPending_fill
 0001:0009A654       PerlIOPending_flush
 0001:0009A6B0       PerlIOPending_pushed
 0001:0009A6F0       PerlIOPending_read
 0001:0009A630       PerlIOPending_seek
 0001:0009A688       PerlIOPending_set_ptrcnt
 0001:00097864       PerlIOPop_pushed
 0001:00098998       PerlIORaw_open
 0001:00097BA8       PerlIORaw_pushed
 0001:00099B08       PerlIOStdio_clearerr
 0001:000997E0       PerlIOStdio_close
 0001:00099744       PerlIOStdio_dup
 0001:00099AE0       PerlIOStdio_eof
 0001:00099AF4       PerlIOStdio_error
 0001:000993C4       PerlIOStdio_fileno
 0001:00099B90       PerlIOStdio_fill
 0001:00099ABC       PerlIOStdio_flush
 0001:00099B34       PerlIOStdio_get_base
 0001:00099B44       PerlIOStdio_get_bufsiz
 0001:00099B64       PerlIOStdio_get_cnt
 0001:00099B58       PerlIOStdio_get_ptr
 0001:000993F4       PerlIOStdio_mode
 0001:00099560       PerlIOStdio_open
 0001:00099420       PerlIOStdio_pushed
 0001:000998FC       PerlIOStdio_read
 0001:00099A8C       PerlIOStdio_seek
 0001:00099B1C       PerlIOStdio_setlinebuf
 0001:00099B74       PerlIOStdio_set_ptrcnt
 0001:00099AA8       PerlIOStdio_tell
 0001:00099980       PerlIOStdio_unread
 0001:00099A34       PerlIOStdio_write
 0001:00099344       PerlIOUnix_close
 0001:000991E0       PerlIOUnix_dup
 0001:00099004       PerlIOUnix_fileno
 0001:00098F5C       PerlIOUnix_oflags
 0001:000990E4       PerlIOUnix_open
 0001:00099030       PerlIOUnix_pushed
 0001:00099244       PerlIOUnix_read
 0001:00098E90       PerlIOUnix_refcnt_dec
 0001:00098E58       PerlIOUnix_refcnt_inc
 0001:00099098       PerlIOUnix_seek
 0001:0009932C       PerlIOUnix_tell
 0001:000992CC       PerlIOUnix_write
 0001:0009895C       PerlIOUtf8_pushed
 0001:00096BE0       PerlIO_allocate
 0001:00097C2C       PerlIO_apply_layera
 0001:00097C88       PerlIO_apply_layers
 0001:000977D4       PerlIO_arg_fetch
 0001:00097CFC       PerlIO_binmode
 0002:00007E70       PerlIO_byte
 0001:00098778       PerlIO_canset_cnt
 0001:00096CCC       PerlIO_cleantable
 0001:00098EE0       PerlIO_cleanup
 0001:00096E54       PerlIO_clone
 0001:00096DFC       PerlIO_clone_list
 0002:00008110       PerlIO_crlf
 0001:00096AAC       PerlIO_debug
 0001:00097798       PerlIO_default_buffer
 0001:000979D0       PerlIO_default_layer
 0001:0009789C       PerlIO_default_layers
 0001:000973FC       PerlIO_define_layer
 0001:00096E6C       PerlIO_destruct
 0001:00099C2C       PerlIO_exportFILE
 0001:000986E4       PerlIO_fast_gets
 0001:0009ABB0       PerlIO_fdopen
 0001:00096C58       PerlIO_fdupopen
 0002:00030624       PerlIO_fd_refcnt
 0001:00099CBC       PerlIO_findFILE
 0001:00097064       PerlIO_find_layer
 0001:0009AC94       PerlIO_getc
 0001:0009ABA4       PerlIO_getname
 0001:0009AEC8       PerlIO_getpos
 0001:00096F30       PerlIO_get_layers
 0001:000986A0       PerlIO_has_base
 0001:0009872C       PerlIO_has_cntptr
 0001:000994BC       PerlIO_importFILE
 0001:00098E44       PerlIO_init
 0001:000969E8       PerlIO_intmode2str
 0001:00098574       PerlIO_isutf8
 0001:00097818       PerlIO_layer_fetch
 0001:00096D1C       PerlIO_list_alloc
 0001:00096D40       PerlIO_list_free
 0001:00096D94       PerlIO_list_push
 0001:00098A10       PerlIO_modestr
 0001:0009ABD0       PerlIO_open
 0001:000980A8       PerlIO_openn
 0001:000974C8       PerlIO_parse_layers
 0002:000080A0       PerlIO_pending
 0002:00008030       PerlIO_perlio
 0001:00096EEC       PerlIO_pop
 0001:0009ADE8       PerlIO_printf
 0001:00097A78       PerlIO_push
 0001:0009AD00       PerlIO_putc
 0001:0009AD24       PerlIO_puts
 0002:00007EE0       PerlIO_raw
 0001:00099CF4       PerlIO_releaseFILE
 0002:00007D90       PerlIO_remove
 0001:0009AC30       PerlIO_reopen
 0001:00097F60       PerlIO_resolve_layers
 0001:0009AD58       PerlIO_rewind
 0001:0009AE58       PerlIO_setpos
 0001:0009AFAC       PerlIO_sprintf
 0002:00007FC0       PerlIO_stdio
 0001:0009AE00       PerlIO_stdoutf
 0001:000979FC       PerlIO_stdstreams
 0001:00098D50       PerlIO_sv_dup
 0001:000971C0       PerlIO_tab_sv
 0001:0009AE1C       PerlIO_tmpfile
 0001:0009ACC4       PerlIO_ungetc
 0002:00007F50       PerlIO_unix
 0002:00007E00       PerlIO_utf8
 0001:0009AD74       PerlIO_vprintf
 0001:0009AF2C       PerlIO_vsprintf
 0001:00097DB0       PerlIO__close
 0001:000AA568       perllib_mangle
 0001:000AA46C       perllib_mangle_with
 0001:000969C4       perlsio_binmode
 0001:00000028       perl_alloc
 0001:00023A34       Perl_allocmy
 0001:0000CFEC       Perl_amagic_call
 0001:00026EB0       Perl_append_elem
 0001:00026F18       Perl_append_list
 0001:00085768       Perl_apply
 0001:00025EC8       Perl_apply_attrs_string
 0001:00042644       Perl_atfork_lock
 0001:00042648       Perl_atfork_unlock
 0001:0004DD3C       Perl_avhv_delete_ent
 0001:0004DD90       Perl_avhv_exists_ent
 0001:0004DD14       Perl_avhv_fetch_ent
 0001:0004DDE0       Perl_avhv_iternext
 0001:0004DDF4       Perl_avhv_iterval
 0001:0004DC34       Perl_avhv_keys
 0001:0004DCEC       Perl_avhv_store_ent
 0001:0004C7EC       Perl_av_clear
 0001:0004D670       Perl_av_delete
 0001:0004D8A4       Perl_av_exists
 0001:0004BDBC       Perl_av_extend
 0001:0004C76C       Perl_av_fake
 0001:0004C1FC       Perl_av_fetch
 0001:0004D3B0       Perl_av_fill
 0001:0004D374       Perl_av_len
 0001:0004C6E0       Perl_av_make
 0001:0004CB44       Perl_av_pop
 0001:0004C91C       Perl_av_push
 0001:0004BD30       Perl_av_reify
 0001:0004D0F0       Perl_av_shift
 0001:0004C400       Perl_av_store
 0001:0004C874       Perl_av_undef
 0001:0004CDC4       Perl_av_unshift
 0001:000262F8       Perl_bind_match
 0001:000266AC       Perl_block_end
 0001:0006FA84       Perl_block_gimme
 0001:000265BC       Perl_block_start
 0001:000979A4       Perl_boot_core_PerlIO
 0001:0009290C       Perl_boot_core_UNIVERSAL
 0001:00094274       Perl_boot_core_xsutils
 0001:0008FE6C       Perl_bytes_from_utf8
 0001:0008FF14       Perl_bytes_to_utf8
 0001:00008E94       Perl_calloc
 0001:00002B00       Perl_call_argv
 0001:000010C0       Perl_call_atexit
 0001:000068D0       Perl_call_list
 0001:00002BB8       Perl_call_method
 0001:00002B9C       Perl_call_pv
 0001:00002BF8       Perl_call_sv
 0001:00085D14       Perl_cando
 0001:0009B088       Perl_cast_i32
 0001:0009B13C       Perl_cast_iv
 0001:0009AFD8       Perl_cast_ulong
 0001:0009B1E8       Perl_cast_uv
 0001:0002C194       Perl_ck_anoncode
 0001:0002C1EC       Perl_ck_bitop
 0001:0002C2CC       Perl_ck_concat
 0001:0002D924       Perl_ck_defined
 0001:0002C3B8       Perl_ck_delete
 0001:0002C44C       Perl_ck_die
 0001:0002C45C       Perl_ck_eof
 0001:0002C4AC       Perl_ck_eval
 0001:0002C594       Perl_ck_exec
 0001:0002C620       Perl_ck_exists
 0001:0002C584       Perl_ck_exit
 0001:0002C974       Perl_ck_ftst
 0001:0002CB0C       Perl_ck_fun
 0001:0002D4E4       Perl_ck_glob
 0001:0002D6F0       Perl_ck_grep
 0001:0002D850       Perl_ck_index
 0001:0002E43C       Perl_ck_join
 0001:0002D88C       Perl_ck_lengthconst
 0001:0002D89C       Perl_ck_lfun
 0001:0002D9F8       Perl_ck_listiob
 0001:0002DAF4       Perl_ck_match
 0001:0002DB00       Perl_ck_method
 0001:0002DB88       Perl_ck_null
 0001:0002DBA0       Perl_ck_open
 0001:0002DC98       Perl_ck_repeat
 0001:0002DCE8       Perl_ck_require
 0001:0002DE74       Perl_ck_return
 0001:0002D9DC       Perl_ck_rfun
 0001:0002C76C       Perl_ck_rvconst
 0001:0002DA88       Perl_ck_sassign
 0001:0002DEB0       Perl_ck_select
 0001:0002DF10       Perl_ck_shift
 0001:0002DF8C       Perl_ck_sort
 0001:0002C2EC       Perl_ck_spair
 0001:0002E25C       Perl_ck_split
 0001:0002E52C       Perl_ck_subr
 0001:0002EDD8       Perl_ck_substr
 0001:0002ED88       Perl_ck_svconst
 0001:0002ED98       Perl_ck_trunc
 0001:00000058       perl_construct
 0001:00026DF8       Perl_convert
 0001:000416F8       Perl_croak
 0001:00045D88       Perl_csighandler
 0001:0002FA6C       Perl_custom_op_desc
 0001:0002FA14       Perl_custom_op_name
 0001:0002A550       Perl_cv_ckproto
 0001:00030EA0       Perl_cv_clone
 0001:0002A670       Perl_cv_const_sv
 0001:0002A400       Perl_cv_undef
 0001:0006B540       Perl_cxinc
 0001:0006D46C       Perl_cx_dump
 0001:000922D8       Perl_deb
 0001:0003FAC0       Perl_debop
 0001:0003FD7C       Perl_debprofdump
 0001:000922F0       Perl_debstack
 0001:000922E0       Perl_debstackptrs
 0001:0009235C       Perl_deb_stack_all
 0001:0003FF40       Perl_delimcpy
 0001:0000E44C       Perl_deprecate
 0001:0000E4A8       Perl_deprecate_old
 0001:000AAB4C       Perl_Deregister_MQ
 0001:00045DB0       Perl_despatch_signals
 0001:000003F4       perl_destruct
 0001:00041300       Perl_die
 0001:0006FF18       Perl_die_where
 0001:00028BD8       Perl_dofile
 0001:00005AE4       Perl_doing_taint
 0001:0006FCB4       Perl_dounwind
 0001:0006FA58       Perl_dowantarray
 0001:000A85D0       Perl_do_aexec
 0001:00085510       Perl_do_aexec5
 0001:00084D10       Perl_do_binmode
 0001:0008171C       Perl_do_chomp
 0001:000814EC       Perl_do_chop
 0001:00084628       Perl_do_close
 0001:00030D78       Perl_do_dump_pad
 0001:000847F4       Perl_do_eof
 0001:000A8614       Perl_do_exec
 0001:000856F8       Perl_do_execfree
 0001:0003D430       Perl_do_gvgv_dump
 0001:0003D3D0       Perl_do_gv_dump
 0001:0003D380       Perl_do_hv_dump
 0001:00080E68       Perl_do_join
 0001:000821C4       Perl_do_kv
 0001:0003CE60       Perl_do_magic_dump
 0001:0008254C       Perl_do_open
 0001:00082578       Perl_do_open9
 0001:0008274C       Perl_do_openn
 0001:0003BF38       Perl_do_op_dump
 0001:000844B0       Perl_do_pipe
 0001:0003BA3C       Perl_do_pmop_dump
 0001:00084D58       Perl_do_print
 0001:00050B90       Perl_do_readline
 0001:00084A38       Perl_do_seek
 0001:00080FF4       Perl_do_sprintf
 0001:0003DBF8       Perl_do_sv_dump
 0001:00084AF4       Perl_do_sysseek
 0001:00084984       Perl_do_tell
 0001:00080D34       Perl_do_trans
 0001:000810C8       Perl_do_vecget
 0001:0008128C       Perl_do_vecset
 0001:000819E0       Perl_do_vop
 0001:0003B028       Perl_dump_all
 0001:0003B224       Perl_dump_eval
 0001:0003B1C0       Perl_dump_form
 0001:0003AFB8       Perl_dump_indent
 0001:00009770       Perl_dump_mstats
 0001:0003B058       Perl_dump_packsubs
 0001:0003B128       Perl_dump_sub
 0001:0003AFEC       Perl_dump_vindent
 0001:00003490       Perl_eval_pv
 0001:000031F8       Perl_eval_sv
 0001:00040130       Perl_fbm_compile
 0001:000402D4       Perl_fbm_instr
 0001:00010F6C       Perl_filter_add
 0001:0001102C       Perl_filter_del
 0001:00011080       Perl_filter_read
 0001:000734D0       Perl_find_runcv
 0001:00042B44       Perl_find_script
 0001:00026AC8       Perl_fold_constants
 0001:00027018       Perl_force_list
 0001:000409B4       Perl_form
 0001:00096990       Perl_fprintf_nocontext
 0001:000010B0       perl_free
 0001:00048E24       Perl_free_tied_hv_pool
 0001:0006B780       Perl_free_tmps
 0001:00026D14       Perl_gen_constant_list
 0001:00043B7C       Perl_getcwd_sv
 0001:00042F9C       Perl_getenv_len
 0001:000029EC       Perl_get_av
 0001:00042F6C       Perl_get_context
 0001:00002A7C       Perl_get_cv
 0001:000445B8       Perl_get_hash_seed
 0001:00002A34       Perl_get_hv
 0001:00009060       Perl_get_mstats
 0001:00042F84       Perl_get_no_modify
 0001:00042F8C       Perl_get_opargs
 0001:00042F7C       Perl_get_op_descs
 0001:00042F74       Perl_get_op_names
 0001:00042F94       Perl_get_ppaddr
 0001:000029CC       Perl_get_sv
 0001:00042FCC       Perl_get_vtbl
 0001:0000C88C       Perl_gp_free
 0001:0000C820       Perl_gp_ref
 0001:0009B31C       Perl_grok_bin
 0001:0009B630       Perl_grok_hex
 0001:0009BD84       Perl_grok_number
 0001:0009BCD8       Perl_grok_numeric_radix
 0001:0009B96C       Perl_grok_oct
 0001:0000CAAC       Perl_Gv_AMupdate
 0001:0000AB88       Perl_gv_autoload4
 0001:00009E94       Perl_gv_AVadd
 0001:0000C6A0       Perl_gv_check
 0001:0003CA08       Perl_gv_dump
 0001:0000C5B0       Perl_gv_efullname
 0001:0000C570       Perl_gv_efullname3
 0001:0000C540       Perl_gv_efullname4
 0001:00009F74       Perl_gv_fetchfile
 0001:0000A404       Perl_gv_fetchmeth
 0001:0000A928       Perl_gv_fetchmethod
 0001:0000A95C       Perl_gv_fetchmethod_autoload
 0001:0000A848       Perl_gv_fetchmeth_autoload
 0001:0000B108       Perl_gv_fetchpv
 0001:0000C58C       Perl_gv_fullname
 0001:0000C528       Perl_gv_fullname3
 0001:0000C480       Perl_gv_fullname4
 0001:0000CE64       Perl_gv_handler
 0001:00009EE4       Perl_gv_HVadd
 0001:0000A088       Perl_gv_init
 0001:00009F38       Perl_gv_IOadd
 0001:0000AE60       Perl_gv_stashpv
 0001:0000AE98       Perl_gv_stashpvn
 0001:0000AF54       Perl_gv_stashsv
 0001:000AA7B8       Perl_hab_GET
 0001:0009B288       Perl_huge
 0001:0004B300       Perl_hv_clear
 0001:0004B240       Perl_hv_delayfree_ent
 0001:00049E28       Perl_hv_delete
 0001:0004A1F0       Perl_hv_delete_ent
 0001:0004A5A8       Perl_hv_exists
 0001:0004A820       Perl_hv_exists_ent
 0001:00048EDC       Perl_hv_fetch
 0001:00049264       Perl_hv_fetch_ent
 0001:0004B1B4       Perl_hv_free_ent
 0001:0004B4F8       Perl_hv_iterinit
 0001:0004B784       Perl_hv_iterkey
 0001:0004B7E8       Perl_hv_iterkeysv
 0001:0004B544       Perl_hv_iternext
 0001:0004B8F0       Perl_hv_iternextsv
 0001:0004B554       Perl_hv_iternext_flags
 0001:0004B898       Perl_hv_iterval
 0001:0004ADDC       Perl_hv_ksplit
 0001:0004B930       Perl_hv_magic
 0001:00049640       Perl_hv_store
 0001:00049A30       Perl_hv_store_ent
 0001:000496D8       Perl_hv_store_flags
 0001:0004B448       Perl_hv_undef
 0001:00040800       Perl_ibcmp
 0001:00040844       Perl_ibcmp_locale
 0001:00091B54       Perl_ibcmp_utf8
 0001:00085D2C       Perl_ingroup
 0001:0000605C       Perl_init_argv_symbols
 0001:00005BF8       Perl_init_debugger
 0001:0009CD94       Perl_init_i18nl10n
 0001:0009D2A0       Perl_init_i18nl14n
 0001:00005CF8       Perl_init_stacks
 0001:00043658       Perl_init_tm
 0001:0003FFB8       Perl_instr
 0001:00030880       Perl_intro_my
 0001:000264A0       Perl_invert
 0001:00084728       Perl_io_close
 0001:0000DDC8       Perl_is_gv_magical
 0001:0006FAF0       Perl_is_lvalue_sub
 0001:0009011C       Perl_is_uni_alnum
 0001:00090140       Perl_is_uni_alnumc
 0001:000903B4       Perl_is_uni_alnumc_lc
 0001:000903A4       Perl_is_uni_alnum_lc
 0001:00090188       Perl_is_uni_alpha
 0001:000903D4       Perl_is_uni_alpha_lc
 0001:000901AC       Perl_is_uni_ascii
 0001:000903E4       Perl_is_uni_ascii_lc
 0001:00090260       Perl_is_uni_cntrl
 0001:00090434       Perl_is_uni_cntrl_lc
 0001:000901F4       Perl_is_uni_digit
 0001:00090404       Perl_is_uni_digit_lc
 0001:00090284       Perl_is_uni_graph
 0001:00090444       Perl_is_uni_graph_lc
 0001:00090164       Perl_is_uni_idfirst
 0001:000903C4       Perl_is_uni_idfirst_lc
 0001:0009023C       Perl_is_uni_lower
 0001:00090424       Perl_is_uni_lower_lc
 0001:000902A8       Perl_is_uni_print
 0001:00090454       Perl_is_uni_print_lc
 0001:000902CC       Perl_is_uni_punct
 0001:00090464       Perl_is_uni_punct_lc
 0001:000901D0       Perl_is_uni_space
 0001:000903F4       Perl_is_uni_space_lc
 0001:00090218       Perl_is_uni_upper
 0001:00090414       Perl_is_uni_upper_lc
 0001:000902F0       Perl_is_uni_xdigit
 0001:00090474       Perl_is_uni_xdigit_lc
 0001:000904E4       Perl_is_utf8_alnum
 0001:00090544       Perl_is_utf8_alnumc
 0001:00090684       Perl_is_utf8_alpha
 0001:000906E4       Perl_is_utf8_ascii
 0001:0008F0D0       Perl_is_utf8_char
 0001:000908D0       Perl_is_utf8_cntrl
 0001:000907A8       Perl_is_utf8_digit
 0001:00090930       Perl_is_utf8_graph
 0001:00090614       Perl_is_utf8_idcont
 0001:000905A4       Perl_is_utf8_idfirst
 0001:00090870       Perl_is_utf8_lower
 0001:00090AAC       Perl_is_utf8_mark
 0001:00090990       Perl_is_utf8_print
 0001:000909F0       Perl_is_utf8_punct
 0001:00090748       Perl_is_utf8_space
 0001:0008F1C8       Perl_is_utf8_string
 0001:0008F238       Perl_is_utf8_string_loc
 0001:0009080C       Perl_is_utf8_upper
 0001:00090A50       Perl_is_utf8_xdigit
 0001:00026A78       Perl_jmaybe
 0001:0001B060       Perl_keyword
 0001:0006C968       Perl_leave_scope
 0001:0000E830       Perl_lex_end
 0001:0000E544       Perl_lex_start
 0001:00023EA4       Perl_linklist
 0001:00024B80       Perl_list
 0001:00024B50       Perl_listkids
 0001:00028A8C       Perl_load_module
 0001:000268F4       Perl_localize
 0001:000562B0       Perl_looks_like_number
 0001:00003718       Perl_magicname
 0001:00045990       Perl_magic_clearenv
 0001:000466A8       Perl_magic_clearpack
 0001:00045BFC       Perl_magic_clearsig
 0001:00045A94       Perl_magic_clear_all_env
 0001:0003D350       Perl_magic_dump
 0001:00046CA0       Perl_magic_existspack
 0001:0000C9F0       Perl_magic_freeovrld
 0001:000477F0       Perl_magic_freeregexp
 0001:00044F40       Perl_magic_get
 0001:00046DE8       Perl_magic_getarylen
 0001:00047408       Perl_magic_getdefelem
 0001:00047024       Perl_magic_getglob
 0001:000461A0       Perl_magic_getnkeys
 0001:00046510       Perl_magic_getpack
 0001:00046E60       Perl_magic_getpos
 0001:00045B18       Perl_magic_getsig
 0001:000470F4       Perl_magic_getsubstr
 0001:00047290       Perl_magic_gettaint
 0001:000458E4       Perl_magic_getuvar
 0001:000472FC       Perl_magic_getvec
 0001:000476E8       Perl_magic_killbackrefs
 0001:00044CDC       Perl_magic_len
 0001:00046A60       Perl_magic_nextpack
 0001:00044C1C       Perl_magic_regdata_cnt
 0001:00044C48       Perl_magic_regdatum_get
 0001:00044CB8       Perl_magic_regdatum_set
 0001:000478B8       Perl_magic_set
 0001:00046194       Perl_magic_setamagic
 0001:00046E24       Perl_magic_setarylen
 0001:00047788       Perl_magic_setbm
 0001:00047804       Perl_magic_setcollxfrm
 0001:00046CB8       Perl_magic_setdbline
 0001:00047508       Perl_magic_setdefelem
 0001:00045904       Perl_magic_setenv
 0001:000477A0       Perl_magic_setfm
 0001:00047064       Perl_magic_setglob
 0001:00046188       Perl_magic_setisa
 0001:00047770       Perl_magic_setmglob
 0001:00046224       Perl_magic_setnkeys
 0001:0004653C       Perl_magic_setpack
 0001:00046EF8       Perl_magic_setpos
 0001:000477DC       Perl_magic_setregexp
 0001:00045E3C       Perl_magic_setsig
 0001:0004719C       Perl_magic_setsubstr
 0001:000472B4       Perl_magic_settaint
 0001:0004782C       Perl_magic_setutf8
 0001:000477B8       Perl_magic_setuvar
 0001:000473F8       Perl_magic_setvec
 0001:000459E8       Perl_magic_set_all_env
 0001:000466C8       Perl_magic_sizepack
 0001:00046884       Perl_magic_wipepack
 0001:00007334       Perl_malloc
 0001:00008FE4       Perl_malloced_size
 0001:0006B698       Perl_markstack_grow
 0001:0009D2B0       Perl_mem_collxfrm
 0001:00040A34       Perl_mess
 0001:0000898C       Perl_mfree
 0001:00044A64       Perl_mg_clear
 0001:00044AEC       Perl_mg_copy
 0001:00044AB8       Perl_mg_find
 0001:00044B98       Perl_mg_free
 0001:000447B0       Perl_mg_get
 0001:00044900       Perl_mg_length
 0001:0004473C       Perl_mg_magical
 0001:00044890       Perl_mg_set
 0001:000449F4       Perl_mg_size
 0001:0004365C       Perl_mini_mktime
 0001:00024F34       Perl_mod
 0001:00084BC0       Perl_mode_from_discipline
 0001:000041D4       Perl_moreswitches
 0001:000262A4       Perl_my
 0001:0009C388       Perl_my_atof
 0001:0009C45C       Perl_my_atof2
 0001:00026214       Perl_my_attrs
 0001:00006C74       Perl_my_exit
 0001:00006C9C       Perl_my_failure_exit
 0001:0004314C       Perl_my_fflush_all
 0001:0004264C       Perl_my_fork
 0001:00085278       Perl_my_lstat
 0001:00042710       Perl_my_pclose
 0001:000422F4       Perl_my_popen
 0001:000422A8       Perl_my_popen_list
 0001:0004204C       Perl_my_setenv
 0001:00044054       Perl_my_socketpair
 0001:00084FC0       Perl_my_stat
 0001:00043A44       Perl_my_strftime
 0001:00004E2C       Perl_my_unexec
 0001:0002BDB4       Perl_newANONATTRSUB
 0001:0002BD68       Perl_newANONHASH
 0001:0002BD34       Perl_newANONLIST
 0001:0002BD9C       Perl_newANONSUB
 0001:00028DAC       Perl_newASSIGNOP
 0001:0002A940       Perl_newATTRSUB
 0001:0004C6A0       Perl_newAV
 0001:0002BF60       Perl_newAVREF
 0001:0002729C       Perl_newBINOP
 0001:0002979C       Perl_newCONDOP
 0001:0002B5DC       Perl_newCONSTSUB
 0001:0002C12C       Perl_newCVREF
 0001:0002BB50       Perl_newFORM
 0001:0002A09C       Perl_newFOROP
 0001:0000C7F4       Perl_newGVgen
 0001:00028580       Perl_newGVOP
 0001:0002BFFC       Perl_newGVREF
 0001:0004AF38       Perl_newHV
 0001:0004AF80       Perl_newHVhv
 0001:0002C06C       Perl_newHVREF
 0001:0000C5EC       Perl_newIO
 0001:0002704C       Perl_newLISTOP
 0001:00029310       Perl_newLOGOP
 0001:0002A308       Perl_newLOOPEX
 0001:00029B04       Perl_newLOOPOP
 0001:0002A7B4       Perl_newMYSUB
 0001:00027008       Perl_newNULLLIST
 0001:0002712C       Perl_newOP
 0001:000284AC       Perl_newPADOP
 0001:00027F00       Perl_newPMOP
 0001:00026734       Perl_newPROG
 0001:000285A0       Perl_newPVOP
 0001:000299AC       Perl_newRANGE
 0001:0005CD14       Perl_newRV
 0001:0005CCBC       Perl_newRV_noinc
 0001:00028C90       Perl_newSLICEOP
 0001:00029144       Perl_newSTATEOP
 0001:0002A808       Perl_newSUB
 0001:00059864       Perl_newSV
 0001:0005CC2C       Perl_newSViv
 0001:0005CBE0       Perl_newSVnv
 0001:00028404       Perl_newSVOP
 0001:0005C95C       Perl_newSVpv
 0001:0005CB3C       Perl_newSVpvf
 0001:0005C9CC       Perl_newSVpvn
 0001:0005CA18       Perl_newSVpvn_share
 0001:0002C148       Perl_newSVREF
 0001:0005D8E0       Perl_newSVrv
 0001:0005CD54       Perl_newSVsv
 0001:0005CC74       Perl_newSVuv
 0001:000271D4       Perl_newUNOP
 0001:00029D3C       Perl_newWHILEOP
 0001:0002B724       Perl_newXS
 0001:0009CAF4       Perl_new_collate
 0001:0009CA8C       Perl_new_ctype
 0001:0009C978       Perl_new_numeric
 0001:0006B4A8       Perl_new_stackinfo
 0001:00083ECC       Perl_nextargv
 0001:00040018       Perl_ninstr
 0001:000002F0       Perl_nothreadhook
 0001:0002BDF0       Perl_oopsAV
 0001:0002C11C       Perl_oopsCV
 0001:0002BE90       Perl_oopsHV
 0001:00023C84       Perl_op_clear
 0001:0002A688       Perl_op_const_sv
 0001:0003C9E0       Perl_op_dump
 0001:00023BC8       Perl_op_free
 0001:00023E78       Perl_op_null
 0001:000A9D54       Perl_OS2_handler_install
 0001:000B03D8       Perl_OS2_init
 0001:000B0500       Perl_OS2_init3
 0001:000B0078       Perl_OS2_term
 0001:0002866C       Perl_package
 0001:000A1980       Perl_packlist
 0001:000A1930       Perl_pack_cat
 0001:0002FFF4       Perl_pad_add_anon
 0001:0002FE04       Perl_pad_add_name
 0001:0002FF24       Perl_pad_alloc
 0001:000307FC       Perl_pad_block_start
 0001:00030120       Perl_pad_check_dup
 0001:000302CC       Perl_pad_findmy
 0001:000311FC       Perl_pad_fixup_inner_anons
 0001:00030CA4       Perl_pad_free
 0001:0003092C       Perl_pad_leavemy
 0001:0002FB18       Perl_pad_new
 0001:00031254       Perl_pad_push
 0001:00030AC4       Perl_pad_reset
 0001:000307DC       Perl_pad_sv
 0001:00030A40       Perl_pad_swipe
 0001:00030AD0       Perl_pad_tidy
 0001:0002FC8C       Perl_pad_undef
 0001:00001140       perl_parse
 0001:000442D4       Perl_parse_unicode_opts
 0001:0002EEF0       Perl_peep
 0001:00098628       Perl_PerlIO_clearerr
 0001:00097DF4       Perl_PerlIO_close
 0001:000985A0       Perl_PerlIO_eof
 0001:000985E4       Perl_PerlIO_error
 0001:00097E1C       Perl_PerlIO_fileno
 0001:0009852C       Perl_PerlIO_fill
 0001:00098448       Perl_PerlIO_flush
 0001:000987BC       Perl_PerlIO_get_base
 0001:00098800       Perl_PerlIO_get_bufsiz
 0001:0009888C       Perl_PerlIO_get_cnt
 0001:00098848       Perl_PerlIO_get_ptr
 0001:000982A8       Perl_PerlIO_read
 0001:000983A0       Perl_PerlIO_seek
 0001:00098664       Perl_PerlIO_setlinebuf
 0001:000988D4       Perl_PerlIO_set_cnt
 0001:00098918       Perl_PerlIO_set_ptrcnt
 0001:0009AB6C       Perl_PerlIO_stderr
 0001:0009AB3C       Perl_PerlIO_stdin
 0001:0009AB54       Perl_PerlIO_stdout
 0001:000983F0       Perl_PerlIO_tell
 0001:000982FC       Perl_PerlIO_unread
 0001:00098350       Perl_PerlIO_write
 0001:00042A10       Perl_pidgone
 0001:0001EAA0       Perl_pmflag
 0001:0003BC5C       Perl_pmop_dump
 0001:00027FC8       Perl_pmruntime
 0001:00027408       Perl_pmtrans
 0001:0006B5FC       Perl_pop_return
 0001:0006B670       Perl_pop_scope
 0001:0004FD00       Perl_pp_aassign
 0001:00066BA4       Perl_pp_abs
 0001:0007B4A8       Perl_pp_accept
 0001:0004E998       Perl_pp_add
 0001:00054180       Perl_pp_aelem
 0001:0004EC48       Perl_pp_aelemfast
 0001:0007EB90       Perl_pp_alarm
 0001:0004E024       Perl_pp_and
 0001:000704DC       Perl_pp_andassign
 0001:000615DC       Perl_pp_anoncode
 0001:00069700       Perl_pp_anonhash
 0001:0006965C       Perl_pp_anonlist
 0001:00068B3C       Perl_pp_aslice
 0001:0006623C       Perl_pp_atan2
 0001:00061174       Perl_pp_av2arylen
 0001:00075EB4       Perl_pp_backtick
 0001:0007B0E0       Perl_pp_bind
 0001:00076EC8       Perl_pp_binmode
 0001:0006499C       Perl_pp_bit_and
 0001:00064CCC       Perl_pp_bit_or
 0001:00064B24       Perl_pp_bit_xor
 0001:000618AC       Perl_pp_bless
 0001:0007066C       Perl_pp_caller
 0001:0007D254       Perl_pp_chdir
 0001:0007D4B0       Perl_pp_chmod
 0001:00062058       Perl_pp_chomp
 0001:00061F88       Perl_pp_chop
 0001:0007D40C       Perl_pp_chown
 0001:00067C94       Perl_pp_chr
 0001:0007D428       Perl_pp_chroot
 0001:0007690C       Perl_pp_close
 0001:0007DD1C       Perl_pp_closedir
 0001:000651EC       Perl_pp_complement
 0001:0004E288       Perl_pp_concat
 0001:0004E154       Perl_pp_cond_expr
 0001:0007B248       Perl_pp_connect
 0001:0004DE58       Perl_pp_const
 0001:0006641C       Perl_pp_cos
 0001:00067F10       Perl_pp_crypt
 0001:00077C90       Perl_pp_dbmclose
 0001:00077A64       Perl_pp_dbmopen
 0001:00070C8C       Perl_pp_dbstate
 0001:000620D8       Perl_pp_defined
 0001:00068E48       Perl_pp_delete
 0001:00076418       Perl_pp_die
 0001:00062CB0       Perl_pp_divide
 0001:00074D60       Perl_pp_dofile
 0001:000721A4       Perl_pp_dump
 0001:00068D18       Perl_pp_each
 0001:0007FD58       Perl_pp_egrent
 0001:0007F7A4       Perl_pp_ehostent
 0001:0007F7E4       Perl_pp_enetent
 0001:000514CC       Perl_pp_enter
 0001:00074D94       Perl_pp_entereval
 0001:00070F78       Perl_pp_enteriter
 0001:000712AC       Perl_pp_enterloop
 0001:0005395C       Perl_pp_entersub
 0001:000754E4       Perl_pp_entertry
 0001:00078680       Perl_pp_enterwrite
 0001:00079E74       Perl_pp_eof
 0001:0007F824       Perl_pp_eprotoent
 0001:0007FB48       Perl_pp_epwent
 0001:0004E6E0       Perl_pp_eq
 0001:0007F864       Perl_pp_eservent
 0001:0007E23C       Perl_pp_exec
 0001:00069078       Perl_pp_exists
 0001:00072EA4       Perl_pp_exit
 0001:00066690       Perl_pp_exp
 0001:0007A628       Perl_pp_fcntl
 0001:00076C60       Perl_pp_fileno
 0001:0006F1E4       Perl_pp_flip
 0001:0007A978       Perl_pp_flock
 0001:0006F46C       Perl_pp_flop
 0001:0007DDC4       Perl_pp_fork
 0001:0006DDD0       Perl_pp_formline
 0001:0007C70C       Perl_pp_ftatime
 0001:0007D214       Perl_pp_ftbinary
 0001:0007C8E4       Perl_pp_ftblk
 0001:0007C888       Perl_pp_ftchr
 0001:0007C7A0       Perl_pp_ftctime
 0001:0007C99C       Perl_pp_ftdir
 0001:0007C4A8       Perl_pp_fteexec
 0001:0007C53C       Perl_pp_fteowned
 0001:0007C3F8       Perl_pp_fteread
 0001:0007C450       Perl_pp_ftewrite
 0001:0007C940       Perl_pp_ftfile
 0001:0007C4FC       Perl_pp_ftis
 0001:0007CA54       Perl_pp_ftlink
 0001:0007C678       Perl_pp_ftmtime
 0001:0007C9F8       Perl_pp_ftpipe
 0001:0007C34C       Perl_pp_ftrexec
 0001:0007C544       Perl_pp_ftrowned
 0001:0007C1EC       Perl_pp_ftrread
 0001:0007C29C       Perl_pp_ftrwrite
 0001:0007CAE8       Perl_pp_ftsgid
 0001:0007C60C       Perl_pp_ftsize
 0001:0007C82C       Perl_pp_ftsock
 0001:0007CA94       Perl_pp_ftsuid
 0001:0007CB3C       Perl_pp_ftsvtx
 0001:0007CC90       Perl_pp_fttext
 0001:0007CB58       Perl_pp_fttty
 0001:0007C5B8       Perl_pp_ftzero
 0001:00064000       Perl_pp_ge
 0001:000619FC       Perl_pp_gelem
 0001:00078194       Perl_pp_getc
 0001:0007FD7C       Perl_pp_getlogin
 0001:0007BAC4       Perl_pp_getpeername
 0001:0007E488       Perl_pp_getpgrp
 0001:0007E3FC       Perl_pp_getppid
 0001:0007E5F8       Perl_pp_getpriority
 0001:0007BABC       Perl_pp_getsockname
 0001:0007FB7C       Perl_pp_ggrent
 0001:0007FB74       Perl_pp_ggrgid
 0001:0007FB6C       Perl_pp_ggrnam
 0001:0007ED8C       Perl_pp_ghbyaddr
 0001:0007ED84       Perl_pp_ghbyname
 0001:0007ED94       Perl_pp_ghostent
 0001:0007617C       Perl_pp_glob
 0001:0007E938       Perl_pp_gmtime
 0001:0007F02C       Perl_pp_gnbyaddr
 0001:0007F024       Perl_pp_gnbyname
 0001:0007F034       Perl_pp_gnetent
 0001:000722B4       Perl_pp_goto
 0001:0007F244       Perl_pp_gpbyname
 0001:0007F24C       Perl_pp_gpbynumber
 0001:0007F254       Perl_pp_gprotoent
 0001:0007F8B4       Perl_pp_gpwent
 0001:0007F8A4       Perl_pp_gpwnam
 0001:0007F8AC       Perl_pp_gpwuid
 0001:0006ED70       Perl_pp_grepstart
 0001:00052A90       Perl_pp_grepwhile
 0001:0007F404       Perl_pp_gsbyname
 0001:0007F40C       Perl_pp_gsbyport
 0001:0007F414       Perl_pp_gservent
 0001:0007B838       Perl_pp_gsockopt
 0001:00063C74       Perl_pp_gt
 0001:0004DFE4       Perl_pp_gv
 0001:0004DEEC       Perl_pp_gvsv
 0001:00051608       Perl_pp_helem
 0001:00066CC0       Perl_pp_hex
 0001:000691B8       Perl_pp_hslice
 0001:000677A4       Perl_pp_index
 0001:00066A30       Perl_pp_int
 0001:0007A674       Perl_pp_ioctl
 0001:00051B64       Perl_pp_iter
 0001:00065A94       Perl_pp_i_add
 0001:000656C8       Perl_pp_i_divide
 0001:00065F5C       Perl_pp_i_eq
 0001:00065EB8       Perl_pp_i_ge
 0001:00065D70       Perl_pp_i_gt
 0001:00065E14       Perl_pp_i_le
 0001:00065CCC       Perl_pp_i_lt
 0001:00065944       Perl_pp_i_modulo
 0001:000655CC       Perl_pp_i_multiply
 0001:000660A4       Perl_pp_i_ncmp
 0001:00066000       Perl_pp_i_ne
 0001:00066194       Perl_pp_i_negate
 0001:00065BB0       Perl_pp_i_subtract
 0001:0004ECCC       Perl_pp_join
 0001:00068E2C       Perl_pp_keys
 0001:0007E388       Perl_pp_kill
 0001:00071AD4       Perl_pp_last
 0001:000686F4       Perl_pp_lc
 0001:00068224       Perl_pp_lcfirst
 0001:00063E38       Perl_pp_le
 0001:00051974       Perl_pp_leave
 0001:00075234       Perl_pp_leaveeval
 0001:000713E8       Perl_pp_leaveloop
 0001:00052C98       Perl_pp_leavesub
 0001:00052FF8       Perl_pp_leavesublv
 0001:0007564C       Perl_pp_leavetry
 0001:000787F8       Perl_pp_leavewrite
 0001:00063834       Perl_pp_left_shift
 0001:00066F50       Perl_pp_length
 0001:00070C68       Perl_pp_lineseq
 0001:0007D674       Perl_pp_link
 0001:00069484       Perl_pp_list
 0001:0007B390       Perl_pp_listen
 0001:0007E8C8       Perl_pp_localtime
 0001:0006B3EC       Perl_pp_lock
 0001:0006678C       Perl_pp_log
 0001:000694E8       Perl_pp_lslice
 0001:0007BC48       Perl_pp_lstat
 0001:00063AAC       Perl_pp_lt
 0001:0006EE9C       Perl_pp_mapstart
 0001:0006EEAC       Perl_pp_mapwhile
 0001:0005028C       Perl_pp_match
 0001:00054480       Perl_pp_method
 0001:000544C8       Perl_pp_method_named
 0001:0007D6E0       Perl_pp_mkdir
 0001:00062E38       Perl_pp_modulo
 0001:0007ED1C       Perl_pp_msgctl
 0001:0007ED14       Perl_pp_msgget
 0001:0007ED2C       Perl_pp_msgrcv
 0001:0007ED24       Perl_pp_msgsnd
 0001:00062A28       Perl_pp_multiply
 0001:00064368       Perl_pp_ncmp
 0001:000641C4       Perl_pp_ne
 0001:00064E74       Perl_pp_negate
 0001:00071E64       Perl_pp_next
 0001:0004DE98       Perl_pp_nextstate
 0001:00065104       Perl_pp_not
 0001:0004DF4C       Perl_pp_null
 0001:00066DC8       Perl_pp_oct
 0001:00076708       Perl_pp_open
 0001:0007D8FC       Perl_pp_open_dir
 0001:0004E8E4       Perl_pp_or
 0001:00070588       Perl_pp_orassign
 0001:00067B88       Perl_pp_ord
 0001:000A3F64       Perl_pp_pack
 0001:00060B48       Perl_pp_padany
 0001:00060820       Perl_pp_padav
 0001:000609FC       Perl_pp_padhv
 0001:0004E524       Perl_pp_padsv
 0001:00076A5C       Perl_pp_pipe_op
 0001:0006A1C8       Perl_pp_pop
 0001:000611C4       Perl_pp_pos
 0001:00062578       Perl_pp_postdec
 0001:000624D4       Perl_pp_postinc
 0001:00062608       Perl_pp_pow
 0001:0006246C       Perl_pp_predec
 0001:0004E87C       Perl_pp_preinc
 0001:0004ED64       Perl_pp_print
 0001:000613FC       Perl_pp_prototype
 0001:00078CD4       Perl_pp_prtf
 0001:0006A058       Perl_pp_push
 0001:0004DF64       Perl_pp_pushmark
 0001:0004ED24       Perl_pp_pushre
 0001:000501E4       Perl_pp_qr
 0001:00068984       Perl_pp_quotemeta
 0001:0006650C       Perl_pp_rand
 0001:0006F100       Perl_pp_range
 0001:00076284       Perl_pp_rcatline
 0001:000784C0       Perl_pp_read
 0001:0007D9D8       Perl_pp_readdir
 0001:0004E5CC       Perl_pp_readline
 0001:0007D6A4       Perl_pp_readlink
 0001:00079E68       Perl_pp_recv
 0001:00071F94       Perl_pp_redo
 0001:000617B0       Perl_pp_ref
 0001:00061664       Perl_pp_refgen
 0001:0006D4F4       Perl_pp_regcmaybe
 0001:0006D514       Perl_pp_regcomp
 0001:0006D4FC       Perl_pp_regcreset
 0001:0007D5A0       Perl_pp_rename
 0001:0006326C       Perl_pp_repeat
 0001:00073D90       Perl_pp_require
 0001:00070BF0       Perl_pp_reset
 0001:00071578       Perl_pp_return
 0001:0006A418       Perl_pp_reverse
 0001:0007DC84       Perl_pp_rewinddir
 0001:00063970       Perl_pp_right_shift
 0001:00067918       Perl_pp_rindex
 0001:0007D80C       Perl_pp_rmdir
 0001:0004F1D0       Perl_pp_rv2av
 0001:00061308       Perl_pp_rv2cv
 0001:00060BAC       Perl_pp_rv2gv
 0001:0004F6C4       Perl_pp_rv2hv
 0001:00060F04       Perl_pp_rv2sv
 0001:0004E0D4       Perl_pp_sassign
 0001:000607EC       Perl_pp_scalar
 0001:00062008       Perl_pp_schomp
 0001:00061F44       Perl_pp_schop
 0001:000648D4       Perl_pp_scmp
 0001:00070F60       Perl_pp_scope
 0001:0007A218       Perl_pp_seek
 0001:0007DBCC       Perl_pp_seekdir
 0001:00078048       Perl_pp_select
 0001:0007ED74       Perl_pp_semctl
 0001:0007ED64       Perl_pp_semget
 0001:0007ED7C       Perl_pp_semop
 0001:000799B0       Perl_pp_send
 0001:000647F4       Perl_pp_seq
 0001:0007E53C       Perl_pp_setpgrp
 0001:0007E68C       Perl_pp_setpriority
 0001:0004DF54       Perl_pp_setstate
 0001:00064768       Perl_pp_sge
 0001:0007FD34       Perl_pp_sgrent
 0001:00064650       Perl_pp_sgt
 0001:0006A208       Perl_pp_shift
 0001:0007ECFC       Perl_pp_shmctl
 0001:0007ECF4       Perl_pp_shmget
 0001:0007ED04       Perl_pp_shmread
 0001:0007ED0C       Perl_pp_shmwrite
 0001:0007F6A4       Perl_pp_shostent
 0001:0007B700       Perl_pp_shutdown
 0001:00066334       Perl_pp_sin
 0001:000646DC       Perl_pp_sle
 0001:0007EC2C       Perl_pp_sleep
 0001:000645C4       Perl_pp_slt
 0001:00064864       Perl_pp_sne
 0001:0007F6E4       Perl_pp_snetent
 0001:0007AACC       Perl_pp_socket
 0001:0007AD20       Perl_pp_sockpair
 0001:000A520C       Perl_pp_sort
 0001:00069854       Perl_pp_splice
 0001:0006A5F8       Perl_pp_split
 0001:00067AD4       Perl_pp_sprintf
 0001:0007F724       Perl_pp_sprotoent
 0001:0007FB24       Perl_pp_spwent
 0001:000668D8       Perl_pp_sqrt
 0001:00066610       Perl_pp_srand
 0001:00061640       Perl_pp_srefgen
 0001:00077CA0       Perl_pp_sselect
 0001:0007F764       Perl_pp_sservent
 0001:0007B840       Perl_pp_ssockopt
 0001:0007BC98       Perl_pp_stat
 0001:0004DFA0       Perl_pp_stringify
 0001:00060790       Perl_pp_stub
 0001:00061D04       Perl_pp_study
 0001:00051E8C       Perl_pp_subst
 0001:0006D768       Perl_pp_substcont
 0001:00067000       Perl_pp_substr
 0001:00063558       Perl_pp_subtract
 0001:0007D690       Perl_pp_symlink
 0001:0007FE1C       Perl_pp_syscall
 0001:00079050       Perl_pp_sysopen
 0001:00079164       Perl_pp_sysread
 0001:0007A224       Perl_pp_sysseek
 0001:0007E0A4       Perl_pp_system
 0001:00079944       Perl_pp_syswrite
 0001:0007A0AC       Perl_pp_tell
 0001:0007DB1C       Perl_pp_telldir
 0001:0006B460       Perl_pp_threadsv
 0001:0007726C       Perl_pp_tie
 0001:0007799C       Perl_pp_tied
 0001:0007E760       Perl_pp_time
 0001:0007E7DC       Perl_pp_tms
 0001:00061EC0       Perl_pp_trans
 0001:0007A468       Perl_pp_truncate
 0001:00068464       Perl_pp_uc
 0001:00067FEC       Perl_pp_ucfirst
 0001:00076E00       Perl_pp_umask
 0001:000621F8       Perl_pp_undef
 0001:0007D43C       Perl_pp_unlink
 0001:000A1534       Perl_pp_unpack
 0001:0006A27C       Perl_pp_unshift
 0001:0004E21C       Perl_pp_unstack
 0001:0007774C       Perl_pp_untie
 0001:0007D524       Perl_pp_utime
 0001:00068E24       Perl_pp_values
 0001:000675B4       Perl_pp_vec
 0001:0007DE9C       Perl_pp_wait
 0001:0007DF88       Perl_pp_waitpid
 0001:0006D470       Perl_pp_wantarray
 0001:000762C0       Perl_pp_warn
 0001:0007037C       Perl_pp_xor
 0001:000340F0       Perl_pregcomp
 0001:00086134       Perl_pregexec
 0001:0003A990       Perl_pregfree
 0001:00026F8C       Perl_prepend_elem
 0001:000969A8       Perl_printf_nocontext
 0001:000AAA84       Perl_Process_Messages
 0001:0006B5AC       Perl_push_return
 0001:0006B61C       Perl_push_scope
 0001:00008F2C       Perl_putenv
 0001:0003B258       Perl_pv_display
 0001:000919C4       Perl_pv_uni_display
 0001:0006FE7C       Perl_qerror
 0001:00045D70       Perl_raise_signal
 0001:00008ADC       Perl_realloc
 0001:00048D5C       Perl_reentrant_free
 0001:00048D58       Perl_reentrant_init
 0001:00048D60       Perl_reentrant_retry
 0001:00048D54       Perl_reentrant_size
 0001:00025924       Perl_ref
 0001:000258F0       Perl_refkids
 0001:0008E380       Perl_regclass_swash
 0001:0003A940       Perl_regdump
 0001:00088D28       Perl_regexec_flags
 0001:00034050       Perl_reginitcolors
 0001:000AA910       Perl_Register_MQ
 0001:0003AC14       Perl_regnext
 0001:0003A944       Perl_regprop
 0001:00042AA0       Perl_repeatcpy
 0001:00043258       Perl_report_evil_fh
 0001:00054F70       Perl_report_uninit
 0001:000035AC       Perl_require_pv
 0001:0008618C       Perl_re_intuit_start
 0001:0003A948       Perl_re_intuit_string
 0001:000400A4       Perl_rninstr
 0001:00042654       Perl_rsignal
 0001:000426FC       Perl_rsignal_restore
 0001:000426BC       Perl_rsignal_save
 0001:0004269C       Perl_rsignal_state
 0001:000026A4       perl_run
 0001:0003F994       Perl_runops_debug
 0001:0004DE28       Perl_runops_standard
 0001:0006DD60       Perl_rxres_free
 0001:0006DCEC       Perl_rxres_restore
 0001:0006DC40       Perl_rxres_save
 0001:0003FEB8       Perl_safesyscalloc
 0001:0003FEA4       Perl_safesysfree
 0001:0003FDBC       Perl_safesysmalloc
 0001:0003FE20       Perl_safesysrealloc
 0001:00040888       Perl_savepv
 0001:000408C4       Perl_savepvn
 0001:00040908       Perl_savesharedpv
 0001:0006B6E0       Perl_savestack_grow
 0001:0006B714       Perl_savestack_grow_cnt
 0001:0006C6E4       Perl_save_aelem
 0001:0006C898       Perl_save_alloc
 0001:0006C38C       Perl_save_aptr
 0001:0006BC9C       Perl_save_ary
 0001:0006BFA0       Perl_save_bool
 0001:0006C4F0       Perl_save_clearsv
 0001:0006C53C       Perl_save_delete
 0001:0006C63C       Perl_save_destructor
 0001:0006C690       Perl_save_destructor_x
 0001:0006C468       Perl_save_freeop
 0001:0006C4AC       Perl_save_freepv
 0001:0006C3E0       Perl_save_freesv
 0001:0006BA04       Perl_save_generic_pvref
 0001:0006B9A4       Perl_save_generic_svref
 0001:0006BAAC       Perl_save_gp
 0001:0006BD98       Perl_save_hash
 0001:0006C794       Perl_save_helem
 0001:0002656C       Perl_save_hints
 0001:0006C338       Perl_save_hptr
 0001:0006C050       Perl_save_I16
 0001:0006BFFC       Perl_save_I32
 0001:0006C0A4       Perl_save_I8
 0001:0006BEF8       Perl_save_int
 0001:0006BE90       Perl_save_item
 0001:0006C0F8       Perl_save_iv
 0001:0006C5B4       Perl_save_list
 0001:0006BF4C       Perl_save_long
 0001:0006C424       Perl_save_mortalizesv
 0001:0006C2F4       Perl_save_nogv
 0001:0006C854       Perl_save_op
 0001:0006C248       Perl_save_padsv
 0001:0006C14C       Perl_save_pptr
 0001:0003AD7C       Perl_save_re_context
 0001:0006B8B8       Perl_save_scalar
 0001:0006BA58       Perl_save_shared_pvref
 0001:0006C1F4       Perl_save_sptr
 0001:0006B938       Perl_save_svref
 0001:0006C2E8       Perl_save_threadsv
 0001:0006C1A0       Perl_save_vptr
 0001:000262B4       Perl_sawparens
 0001:00024030       Perl_scalar
 0001:00023F00       Perl_scalarkids
 0001:00024D4C       Perl_scalarseq
 0001:00024290       Perl_scalarvoid
 0001:0009BBB8       Perl_scan_bin
 0001:0009BC78       Perl_scan_hex
 0001:00020554       Perl_scan_num
 0001:0009BC18       Perl_scan_oct
 0001:00021BA0       Perl_scan_vstring
 0001:000264C4       Perl_scope
 0001:00040610       Perl_screaminstr
 0001:0004449C       Perl_seed
 0001:000AAA08       Perl_Serve_Messages
 0001:00078020       Perl_setdefout
 0001:00042220       Perl_setenv_getix
 0001:00042F70       Perl_set_context
 0001:0009CA5C       Perl_set_numeric_local
 0001:0009C900       Perl_set_numeric_radix
 0001:0009CA2C       Perl_set_numeric_standard
 0001:0004BBC0       Perl_share_hek
 0001:000487CC       Perl_sighandler
 0001:000A5160       Perl_sortsv
 0001:0006B470       Perl_stack_grow
 0001:00085DAC       Perl_start_glob
 0001:000212C4       Perl_start_subparse
 0001:00008EE4       Perl_strdup
 0001:0000F1DC       Perl_str_to_version
 0001:00054114       Perl_sub_crush_depth
 0001:00057EAC       Perl_sv_2bool
 0001:0005D1A0       Perl_sv_2cv
 0001:0005D050       Perl_sv_2io
 0001:00056318       Perl_sv_2iv
 0001:0005C8F8       Perl_sv_2mortal
 0001:00056EB4       Perl_sv_2nv
 0001:000574C4       Perl_sv_2pv
 0001:00057E1C       Perl_sv_2pvbyte
 0001:00057E04       Perl_sv_2pvbyte_nolen
 0001:00057E70       Perl_sv_2pvutf8
 0001:00057E58       Perl_sv_2pvutf8_nolen
 0001:00057540       Perl_sv_2pv_flags
 0001:00057428       Perl_sv_2pv_nolen
 0001:000568EC       Perl_sv_2uv
 0001:00054A28       Perl_sv_add_arena
 0001:00055CAC       Perl_sv_backoff
 0001:0005DB08       Perl_sv_bless
 0001:00059768       Perl_sv_catpv
 0001:0005DEBC       Perl_sv_catpvf
 0001:0005DF28       Perl_sv_catpvf_mg
 0001:00059528       Perl_sv_catpvn
 0001:00059540       Perl_sv_catpvn_flags
 0001:00059600       Perl_sv_catpvn_mg
 0001:00059840       Perl_sv_catpv_mg
 0001:0005962C       Perl_sv_catsv
 0001:00059640       Perl_sv_catsv_flags
 0001:00059740       Perl_sv_catsv_mg
 0001:00060514       Perl_sv_cat_decode
 0001:00059464       Perl_sv_chop
 0001:00054C6C       Perl_sv_clean_all
 0001:00054C30       Perl_sv_clean_objs
 0001:0005A4F0       Perl_sv_clear
 0001:0005B624       Perl_sv_cmp
 0001:0005B874       Perl_sv_cmp_locale
 0001:0005B940       Perl_sv_collxfrm
 0001:000730B4       Perl_sv_compile_2op
 0001:00057DA8       Perl_sv_copypv
 0001:0005C604       Perl_sv_dec
 0001:000926D0       Perl_sv_derived_from
 0001:0003F940       Perl_sv_dump
 0001:0005B3F0       Perl_sv_eq
 0001:00059454       Perl_sv_force_normal
 0001:00059390       Perl_sv_force_normal_flags
 0001:0005AB48       Perl_sv_free
 0001:00054C88       Perl_sv_free_arenas
 0001:0005BA60       Perl_sv_gets
 0001:00055CEC       Perl_sv_grow
 0001:0005C300       Perl_sv_inc
 0001:0005A114       Perl_sv_insert
 0001:0005D884       Perl_sv_isa
 0001:0005D844       Perl_sv_isobject
 0001:0005D444       Perl_sv_iv
 0001:0005AC60       Perl_sv_len
 0001:0005ACB4       Perl_sv_len_utf8
 0001:00059A2C       Perl_sv_magic
 0001:000598C8       Perl_sv_magicext
 0001:0005C814       Perl_sv_mortalcopy
 0001:0005C890       Perl_sv_newmortal
 0001:0005AB0C       Perl_sv_newref
 0001:00044288       Perl_sv_nolocking
 0001:00044284       Perl_sv_nosharing
 0001:0004428C       Perl_sv_nounlocking
 0001:0005D48C       Perl_sv_nv
 0001:0003B490       Perl_sv_peek
 0001:0005B1FC       Perl_sv_pos_b2u
 0001:0005AFD8       Perl_sv_pos_u2b
 0001:0005D4A8       Perl_sv_pv
 0001:0005D680       Perl_sv_pvbyte
 0001:0005D6AC       Perl_sv_pvbyten
 0001:0005D6CC       Perl_sv_pvbyten_force
 0001:0005D4D0       Perl_sv_pvn
 0001:0005D524       Perl_sv_pvn_force
 0001:0005D558       Perl_sv_pvn_force_flags
 0001:0005D4F8       Perl_sv_pvn_nomg
 0001:0005D6F0       Perl_sv_pvutf8
 0001:0005D71C       Perl_sv_pvutf8n
 0001:0005D73C       Perl_sv_pvutf8n_force
 0001:00060348       Perl_sv_recode_to_utf8
 0001:0005D760       Perl_sv_reftype
 0001:0005A3B8       Perl_sv_replace
 0001:00054B6C       Perl_sv_report_used
 0001:0005CE1C       Perl_sv_reset
 0001:00059F3C       Perl_sv_rvweaken
 0001:00055DFC       Perl_sv_setiv
 0001:00055F04       Perl_sv_setiv_mg
 0001:00055FBC       Perl_sv_setnv
 0001:000560C0       Perl_sv_setnv_mg
 0001:000591AC       Perl_sv_setpv
 0001:0005DDD4       Perl_sv_setpvf
 0001:0005DE40       Perl_sv_setpvf_mg
 0001:0005DD54       Perl_sv_setpviv
 0001:0005DD8C       Perl_sv_setpviv_mg
 0001:000590C0       Perl_sv_setpvn
 0001:00059184       Perl_sv_setpvn_mg
 0001:0005926C       Perl_sv_setpv_mg
 0001:0005DA50       Perl_sv_setref_iv
 0001:0005DA98       Perl_sv_setref_nv
 0001:0005DA04       Perl_sv_setref_pv
 0001:0005DAC0       Perl_sv_setref_pvn
 0001:0005DA74       Perl_sv_setref_uv
 0001:000582B0       Perl_sv_setsv
 0001:00058380       Perl_sv_setsv_flags
 0001:0005906C       Perl_sv_setsv_mg
 0001:00055F28       Perl_sv_setuv
 0001:00055F58       Perl_sv_setuv_mg
 0001:0005DCD4       Perl_sv_taint
 0001:0005DD14       Perl_sv_tainted
 0001:0005D3B8       Perl_sv_true
 0001:00091B34       Perl_sv_uni_display
 0001:00059E40       Perl_sv_unmagic
 0001:0005DCC4       Perl_sv_unref
 0001:0005DC64       Perl_sv_unref_flags
 0001:0005DCEC       Perl_sv_untaint
 0001:0005559C       Perl_sv_upgrade
 0001:00059290       Perl_sv_usepvn
 0001:00059368       Perl_sv_usepvn_mg
 0001:0005824C       Perl_sv_utf8_decode
 0001:00058150       Perl_sv_utf8_downgrade
 0001:00058234       Perl_sv_utf8_encode
 0001:00058020       Perl_sv_utf8_upgrade
 0001:00058030       Perl_sv_utf8_upgrade_flags
 0001:0005D468       Perl_sv_uv
 0001:0005DEE8       Perl_sv_vcatpvf
 0001:0005E0C0       Perl_sv_vcatpvfn
 0001:0005DF54       Perl_sv_vcatpvf_mg
 0001:0005DE00       Perl_sv_vsetpvf
 0001:0005DFA4       Perl_sv_vsetpvfn
 0001:0005DE6C       Perl_sv_vsetpvf_mg
 0001:00091374       Perl_swash_fetch
 0001:00090DD8       Perl_swash_init
 0001:00092050       Perl_taint_env
 0001:00091F10       Perl_taint_proper
 0001:0006B73C       Perl_tmps_grow
 0001:00090380       Perl_to_uni_fold
 0001:0009035C       Perl_to_uni_lower
 0001:000904BC       Perl_to_uni_lower_lc
 0001:00090338       Perl_to_uni_title
 0001:000904A0       Perl_to_uni_title_lc
 0001:00090314       Perl_to_uni_upper
 0001:00090484       Perl_to_uni_upper_lc
 0001:00090B08       Perl_to_utf8_case
 0001:00090D4C       Perl_to_utf8_fold
 0001:00090D10       Perl_to_utf8_lower
 0001:00090CD0       Perl_to_utf8_title
 0001:00090C90       Perl_to_utf8_upper
 0001:0009E240       Perl_unpackstring
 0001:0009E1EC       Perl_unpack_str
 0001:0004B94C       Perl_unsharepvn
 0001:0004B964       Perl_unshare_hek
 0001:0008FFD0       Perl_utf16_to_utf8
 0001:000900D4       Perl_utf16_to_utf8_reversed
 0001:00091988       Perl_utf8n_to_uvchr
 0001:0008F4A0       Perl_utf8n_to_uvuni
 0001:0008FC58       Perl_utf8_distance
 0001:0008FD98       Perl_utf8_hop
 0001:0008FB0C       Perl_utf8_length
 0001:0008FDE0       Perl_utf8_to_bytes
 0001:0008FA3C       Perl_utf8_to_uvchr
 0001:0008FAA4       Perl_utf8_to_uvuni
 0001:0002878C       Perl_utilize
 0001:0009195C       Perl_uvchr_to_utf8
 0001:00091970       Perl_uvchr_to_utf8_flags
 0001:0008F0BC       Perl_uvuni_to_utf8
 0001:0008EF50       Perl_uvuni_to_utf8_flags
 0001:00041328       Perl_vcroak
 0001:000922DC       Perl_vdeb
 0001:00040F58       Perl_vdie
 0001:000409DC       Perl_vform
 0001:0004754C       Perl_vivify_defelem
 0001:000543AC       Perl_vivify_ref
 0001:00028ABC       Perl_vload_module
 0001:00040AE0       Perl_vmess
 0001:0005CB64       Perl_vnewSVpvf
 0001:00041710       Perl_vwarn
 0001:00041A08       Perl_vwarner
 0001:00042864       Perl_wait4pid
 0001:000419B4       Perl_warn
 0001:000419DC       Perl_warner
 0001:0003FCF4       Perl_watch
 0001:000486F8       Perl_whichsig
 0001:00040C78       Perl_write_to_stderr
 0001:00021490       Perl_yyerror
 0001:000119D4       Perl_yylex
 0001:00021E18       Perl_yyparse
 0001:00021370       Perl_yywarn
 0001:000A613C       pExtFCN
 0002:00007844       PL_amagic_generation
 0002:00007C84       PL_AMG_names
 0002:00007824       PL_an
 0002:000326CC       PL_Argv
 0002:0003287C       PL_argvgv
 0002:000303FC       PL_argvoutgv
 0002:00032630       PL_argvout_stack
 0002:00030524       PL_av_fetch_sv
 0002:000300EC       PL_basetime
 0002:000328D8       PL_beginav
 0002:0000785C       PL_beginav_save
 0002:000302CC       PL_BINCOMPAT0
 0002:0003027C       PL_bitcount
 0002:000304BC       PL_bodytarget
 0002:0003270C       PL_bostr
 0002:00032724       PL_bufend
 0002:0003284C       PL_bufptr
 0002:00006CE0       PL_check
 0002:000328BC       PL_checkav
 0002:00007878       PL_checkav_save
 0002:000078B8       PL_chopset
 0002:0000787C       PL_clocktick
 0002:0003059C       PL_Cmd
 0002:00007848       PL_collation_ix
 0002:00032634       PL_collation_name
 0002:0000784C       PL_collation_standard
 0002:00030604       PL_collxfrm_base
 0002:00007850       PL_collxfrm_mult
 0002:00032854       PL_colors
 0002:00030304       PL_colorset
 0002:0003286C       PL_compcv
 0002:00030354       PL_compiling
 0002:000328EC       PL_comppad
 0002:000305E8       PL_comppad_name
 0002:0000FFE4       PL_comppad_name_fill
 0002:00010000       PL_comppad_name_floor
 0002:000077F8       PL_copline
 0002:00007828       PL_cop_seqmax
 0002:0000791C       PL_csighandlerp
 0002:000078BC       PL_curcop
 0002:000077F4       PL_curcopdb
 0002:000303A8       PL_curinterp
 0002:00032850       PL_curpad
 0002:00032704       PL_curpm
 0002:00030270       PL_curstack
 0002:000305D0       PL_curstackinfo
 0002:000302D4       PL_curstash
 0002:000303B0       PL_curstname
 0002:000326DC       PL_custom_op_descs
 0002:000326E0       PL_custom_op_names
 0002:00032740       PL_dbargs
 0002:000326A4       PL_DBcv
 0002:000326AC       PL_DBgv
 0002:00032734       PL_DBline
 0002:00030214       PL_DBsignal
 0002:000300F0       PL_DBsingle
 0002:00032700       PL_DBsub
 0002:000328FC       PL_DBtrace
 0002:0003022C       PL_debstash
 0002:000326F0       PL_debug
 0002:000302D8       PL_debug_pad
 0002:000326B4       PL_defgv
 0002:000302C4       PL_defoutgv
 0002:0003023C       PL_defstash
 0002:00007870       PL_def_layerlist
 0002:00030340       PL_delaymagic
 0002:000328C4       PL_diehook
 0002:000078C0       PL_dirty
 0002:0003031C       PL_doextract
 0002:000304C4       PL_doswitches
 0002:00032738       PL_dowarn
 0002:00007914       PL_do_undump
 0002:000078C8       PL_dumpindent
 0002:0003038C       PL_efloatbuf
 0002:000304AC       PL_efloatsize
 0002:0003267C       PL_egid
 0002:00007874       PL_encoding
 0002:00032698       PL_endav
 0002:000326F4       PL_envgv
 0002:000326EC       PL_errgv
 0002:000078C4       PL_errors
 0002:0003054C       PL_error_count
 0002:00032680       PL_euid
 0002:00007830       PL_evalseq
 0002:00030394       PL_eval_root
 0002:0003044C       PL_eval_start
 0002:00007808       PL_exitlist
 0002:0000780C       PL_exitlistlen
 0002:00030498       PL_exit_flags
 0002:00007840       PL_expect
 0002:00030300       PL_extralen
 0002:000302C8       PL_e_script
 0002:000326D4       PL_fdpid
 0002:0001003C       PL_filemode
 0002:0000FFC4       PL_firstgv
 0001:00095155       PL_fold
 0002:00005B64       PL_fold_locale
 0002:0003051C       PL_forkprocess
 0002:000300F8       PL_formfeed
 0002:000304A8       PL_formtarget
 0001:00095255       PL_freq
 0002:0000781C       PL_generation
 0002:000077FC       PL_gensym
 0002:00030594       PL_gid
 0002:00030514       PL_globalstash
 0002:00007858       PL_glob_index
 0002:0000789C       PL_hash_seed
 0002:000078A0       PL_hash_seed_set
 0002:0000790C       PL_hexdigit
 0002:000305AC       PL_he_arenaroot
 0002:0000FFDC       PL_he_root
 0002:00032880       PL_hintgv
 0002:00032708       PL_hints
 0002:00032690       PL_hv_fetch_ent_mh
 0002:00030540       PL_hv_fetch_sv
 0002:000326BC       PL_incgv
 0002:00032878       PL_initav
 0002:000328E4       PL_inplace
 0002:00007821       PL_in_clean_all
 0002:00007820       PL_in_clean_objs
 0002:00032908       PL_in_eval
 0002:00007880       PL_in_load_module
 0002:00032710       PL_in_my
 0002:0003055C       PL_in_my_stash
 0002:0000786C       PL_known_layers
 0002:00032870       PL_lastfd
 0002:0003061C       PL_lastgotoprobe
 0002:000304B0       PL_lastscream
 0002:00007800       PL_laststatval
 0002:00007804       PL_laststype
 0002:00030504       PL_last_in_gv
 0002:00030344       PL_last_lop
 0002:00030558       PL_last_lop_op
 0002:00032628       PL_last_swash_hv
 0002:00032668       PL_last_swash_key
 0002:000326A8       PL_last_swash_klen
 0002:000326E4       PL_last_swash_slen
 0002:000326FC       PL_last_swash_tmps
 0002:00030324       PL_last_uni
 0002:00030608       PL_lex_brackets
 0002:0003264C       PL_lex_brackstack
 0002:00030614       PL_lex_casemods
 0002:00030600       PL_lex_casestack
 0002:00030404       PL_lex_defer
 0002:000304F8       PL_lex_dojoin
 0002:000304EC       PL_lex_expect
 0002:00032624       PL_lex_formbrack
 0002:00030424       PL_lex_inpat
 0002:000304FC       PL_lex_inwhat
 0002:00032898       PL_lex_op
 0002:00030400       PL_lex_repl
 0002:00030500       PL_lex_starts
 0002:000304A0       PL_lex_state
 0002:0003045C       PL_lex_stuff
 0002:00032904       PL_lineary
 0002:00030320       PL_linestart
 0002:000328F4       PL_linestr
 0002:0003041C       PL_localizing
 0002:00030590       PL_localpatches
 0002:00007888       PL_lockhook
 0002:00030248       PL_mainstack
 0002:00032914       PL_main_cv
 0002:000303AC       PL_main_root
 0002:00030468       PL_main_start
 0002:00030254       PL_markstack
 0002:000305B4       PL_markstack_max
 0002:000305FC       PL_markstack_ptr
 0002:00007834       PL_maxo
 0002:000078CC       PL_maxscream
 0002:000077E8       PL_maxsysfd
 0002:0000FFFC       PL_max_intro_pending
 0002:0000FFD8       PL_mess_sv
 0002:0000FFA0       PL_minus_a
 0002:0000FFA8       PL_minus_c
 0002:0000FFC0       PL_minus_F
 0002:0000FFCC       PL_minus_l
 0002:0000FFD0       PL_minus_n
 0002:0000FFD4       PL_minus_p
 0002:0000FFF8       PL_min_intro_pending
 0002:00030240       PL_modcount
 0002:000300FC       PL_modglobal
 0002:000303F8       PL_multiline
 0002:00030544       PL_multi_close
 0002:00030410       PL_multi_end
 0002:000304E4       PL_multi_open
 0002:00030560       PL_multi_start
 0002:00030564       PL_na
 0002:000302B8       PL_nexttoke
 0002:00030328       PL_nexttype
 0002:0000FFAC       PL_nextval
 0002:00030444       PL_nice_chunk
 0002:000326A0       PL_nice_chunk_size
 0002:00007908       PL_No
 0002:000328E0       PL_nomemok
 0001:00094EE1       PL_no_aelem
 0001:00094FE6       PL_no_dir_func
 0001:00095011       PL_no_func
 0001:00094F23       PL_no_helem
 0001:00095059       PL_no_localize_ref
 0001:00094F92       PL_no_mem
 0001:00094F66       PL_no_modify
 0001:00095032       PL_no_myglob
 0001:00094FA2       PL_no_security
 0001:00094FBE       PL_no_sock_func
 0001:00094E74       PL_no_symref
 0001:00094EB4       PL_no_usym
 0001:00094E59       PL_no_wrongref
 0002:000305C4       PL_nrs
 0002:000303A4       PL_nullstash
 0002:00032678       PL_numeric_compat1
 0002:00007855       PL_numeric_local
 0002:000305BC       PL_numeric_name
 0002:0000FFE8       PL_numeric_radix_sv
 0002:00007854       PL_numeric_standard
 0002:000326C8       PL_ofmt
 0002:0003289C       PL_ofs_sv
 0002:0003030C       PL_oldbufptr
 0002:000328D0       PL_oldname
 0002:000305F4       PL_oldoldbufptr
 0002:00030568       PL_op
 0002:00007260       PL_opargs
 0002:000061E4       PL_op_desc
 0002:000077F0       PL_op_mask
 0002:00005C64       PL_op_name
 0002:0000782C       PL_op_seqmax
 0002:00030220       PL_origalen
 0002:00010048       PL_origargc
 0002:00030264       PL_origargv
 0002:00030518       PL_origenviron
 0002:00030588       PL_origfilename
 0002:000328AC       PL_ors_sv
 0002:0003272C       PL_osname
 0002:000326C0       PL_padix
 0002:00030510       PL_padix_floor
 0002:0000FFE0       PL_pad_reset_pending
 0002:0003046C       PL_patchlevel
 0002:00007910       PL_patleave
 0002:000078E0       PL_peepp
 0002:00030610       PL_pending_ident
 0002:00032744       PL_perldb
 0002:00007868       PL_perlio
 0002:000077E4       PL_perl_destruct_level
 0002:00030420       PL_pidstatus
 0002:00006764       PL_ppaddr
 0002:000303A0       PL_preambleav
 0002:00030210       PL_preambled
 0002:00030440       PL_preprocess
 0002:00007810       PL_profiledata
 0002:000302BC       PL_psig_name
 0002:00030308       PL_psig_pend
 0002:000302FC       PL_psig_ptr
 0002:0000FFA4       PL_reentrant_retint
 0002:00032714       PL_regbol
 0002:0003269C       PL_regcc
 0002:000328B0       PL_regcode
 0002:000302B4       PL_regcompat1
 0002:000078E4       PL_regcompp
 0002:0003262C       PL_regcomp_parse
 0002:000304D4       PL_regcomp_rx
 0002:000328B4       PL_regdata
 0002:0003026C       PL_regdummy
 0002:000328C0       PL_regendp
 0002:00032728       PL_regeol
 0002:000078E8       PL_regexecp
 0002:0003021C       PL_regflags
 0002:000078F4       PL_regfree
 0002:000078D0       PL_regindent
 0002:000302C0       PL_reginput
 0002:000078F8       PL_reginterp_cnt
 0002:000078EC       PL_regint_start
 0002:000078F0       PL_regint_string
 0001:00031398       PL_regkind
 0002:000328F0       PL_reglastcloseparen
 0002:000305C8       PL_reglastparen
 0002:0003042C       PL_regnarrate
 0002:00030460       PL_regnaughty
 0002:000328F8       PL_regnpar
 0002:00030494       PL_regprecomp
 0002:000304B8       PL_regprogram
 0002:00030418       PL_regsawback
 0002:00032910       PL_regseen
 0002:00032918       PL_regsize
 0002:00030414       PL_regstartp
 0002:00032954       PL_regtill
 0002:00032950       PL_regxend
 0002:0003053C       PL_reg_call_cc
 0002:000078D8       PL_reg_curpm
 0002:00030618       PL_reg_eval_set
 0002:00030390       PL_reg_flags
 0002:00030350       PL_reg_ganch
 0002:00030620       PL_reg_leftiter
 0002:0003039C       PL_reg_magic
 0002:00032664       PL_reg_match_utf8
 0002:00030550       PL_reg_maxiter
 0002:000078D4       PL_reg_oldcurpm
 0002:000304DC       PL_reg_oldpos
 0002:000305EC       PL_reg_oldsaved
 0002:00032684       PL_reg_oldsavedlen
 0002:000078DC       PL_reg_poscache
 0002:0000FFF4       PL_reg_poscache_size
 0002:0003288C       PL_reg_re
 0002:000078FC       PL_reg_starttry
 0002:00032650       PL_reg_start_tmp
 0002:00032674       PL_reg_start_tmpl
 0002:00032894       PL_reg_sv
 0002:000326F8       PL_reg_whilem_seen
 0002:000078A4       PL_rehash_seed
 0002:000078A8       PL_rehash_seed_set
 0002:00032848       PL_replgv
 0002:00030434       PL_restartop
 0002:00030260       PL_retstack
 0002:00030548       PL_retstack_ix
 0002:000305F8       PL_retstack_max
 0002:0003056C       PL_rs
 0002:00007814       PL_rsfp
 0002:00007818       PL_rsfp_filters
 0002:0000783C       PL_runops
 0002:00007898       PL_runops_dbg
 0002:00007894       PL_runops_std
 0002:00007864       PL_savebegin
 0002:00030234       PL_savestack
 0002:000305B8       PL_savestack_ix
 0002:000305A0       PL_savestack_max
 0002:0003058C       PL_sawampersand
 0002:00030454       PL_scopestack
 0002:0003060C       PL_scopestack_ix
 0002:00032660       PL_scopestack_max
 0002:0003050C       PL_screamfirst
 0002:00030430       PL_screamnext
 0002:00030268       PL_secondgv
 0002:00030438       PL_seen_evals
 0002:000305D8       PL_seen_zerolen
 0002:00007884       PL_sharehook
 0002:00007918       PL_sh_path
 0002:00007838       PL_sh_path_compat
 0002:000305B0       PL_sigfpe_saved
 0002:00030508       PL_sighandlerp
 0002:0003290C       PL_signals
 0002:00005A6C       PL_sig_name
 0002:00005AE8       PL_sig_num
 0002:00007860       PL_sig_pending
 0001:00031463       PL_simple
 0002:0000FFC8       PL_sortcop
 0002:00030408       PL_sortcxix
 0002:00030428       PL_sortstash
 0002:000305D4       PL_sort_RealCmp
 0002:000077E0       PL_splitstr
 0002:00030584       PL_srand_called
 0002:00030348       PL_stack_base
 0002:00030230       PL_stack_max
 0002:00030250       PL_stack_sp
 0002:000303B4       PL_start_env
 0002:0003040C       PL_stashcache
 0002:0003291C       PL_statbuf
 0002:00030280       PL_statcache
 0002:00032874       PL_statgv
 0002:000078B4       PL_statname
 0002:00030520       PL_statusvalue
 0002:0003025C       PL_stderrgv
 0002:00032900       PL_stdingv
 0002:00032884       PL_strtab
 0002:00030528       PL_sublex_info
 0002:000328DC       PL_subline
 0002:000328E8       PL_subname
 0002:000077EC       PL_sub_generation
 0002:00030570       PL_Sv
 0002:000305C0       PL_sv_arenaroot
 0002:0003033C       PL_sv_count
 0002:00032718       PL_sv_no
 0002:00030554       PL_sv_objcount
 0002:00032638       PL_sv_placeholder
 0002:0000FFEC       PL_sv_root
 0002:00030310       PL_sv_undef
 0002:000328A0       PL_sv_yes
 0002:000328D4       PL_tainted
 0002:00030228       PL_tainting
 0002:0003049C       PL_taint_warn
 0002:00007890       PL_threadhook
 0002:00030200       PL_timesbuf
 0002:000078B0       PL_tmps_floor
 0002:000078AC       PL_tmps_ix
 0002:00030398       PL_tmps_max
 0002:000304C0       PL_tmps_stack
 0002:00030100       PL_tokenbuf
 0002:0003034C       PL_toptarget
 0002:0000FFF0       PL_top_env
 0002:000305A8       PL_uid
 0002:000328B8       PL_unicode
 0002:0000788C       PL_unlockhook
 0002:00032730       PL_unsafe
 0002:00010034       PL_utf8locale
 0001:00094CB4       PL_utf8skip
 0002:00030218       PL_utf8_alnum
 0002:000304A4       PL_utf8_alnumc
 0002:000300F4       PL_utf8_alpha
 0002:00010044       PL_utf8_ascii
 0002:00030238       PL_utf8_cntrl
 0002:0001004C       PL_utf8_digit
 0002:00010040       PL_utf8_graph
 0002:00030448       PL_utf8_idcont
 0002:0003057C       PL_utf8_idstart
 0002:00030278       PL_utf8_lower
 0002:00010030       PL_utf8_mark
 0002:00030224       PL_utf8_print
 0002:00030244       PL_utf8_punct
 0002:00010038       PL_utf8_space
 0002:00030490       PL_utf8_tofold
 0002:00030578       PL_utf8_tolower
 0002:00030574       PL_utf8_totitle
 0002:00030580       PL_utf8_toupper
 0002:0003024C       PL_utf8_upper
 0002:000304B4       PL_utf8_xdigit
 0002:00032748       PL_uudmap
 0001:0009507C       PL_uuemap
 0001:00031452       PL_varies
 0002:00007BF8       PL_vtbl_amagic
 0002:00007C14       PL_vtbl_amagicelem
 0002:00007A38       PL_vtbl_arylen
 0002:00007C30       PL_vtbl_backref
 0002:00007B18       PL_vtbl_bm
 0002:00007BDC       PL_vtbl_collxfrm
 0002:000079E4       PL_vtbl_dbline
 0002:00007B6C       PL_vtbl_defelem
 0002:0000793C       PL_vtbl_env
 0002:00007958       PL_vtbl_envelem
 0002:00007B34       PL_vtbl_fm
 0002:00007A54       PL_vtbl_glob
 0002:00007A00       PL_vtbl_isa
 0002:00007A1C       PL_vtbl_isaelem
 0002:00007A70       PL_vtbl_mglob
 0002:00007A8C       PL_vtbl_nkeys
 0002:00007C4C       PL_vtbl_ovrld
 0002:000079AC       PL_vtbl_pack
 0002:000079C8       PL_vtbl_packelem
 0002:00007AFC       PL_vtbl_pos
 0002:00007BA4       PL_vtbl_regdata
 0002:00007BC0       PL_vtbl_regdatum
 0002:00007B88       PL_vtbl_regexp
 0002:00007974       PL_vtbl_sig
 0002:00007990       PL_vtbl_sigelem
 0002:00007AC4       PL_vtbl_substr
 0002:00007920       PL_vtbl_sv
 0002:00007AA8       PL_vtbl_taint
 0002:00007C68       PL_vtbl_utf8
 0002:00007B50       PL_vtbl_uvar
 0002:00007AE0       PL_vtbl_vec
 0002:00030274       PL_warnhook
 0001:00094E2A       PL_warn_nl
 0001:00094DD3       PL_warn_nosemi
 0001:00094DF1       PL_warn_reserved
 0001:00094DB4       PL_warn_uninit
 0002:00007900       PL_watchaddr
 0002:000328CC       PL_watchok
 0002:000305A4       PL_widesyscalls
 0002:00032648       PL_xiv_arenaroot
 0002:0003043C       PL_xiv_root
 0002:00032654       PL_xnv_arenaroot
 0002:00030450       PL_xnv_root
 0002:000305E0       PL_Xpv
 0002:0003268C       PL_xpvav_arenaroot
 0002:000304CC       PL_xpvav_root
 0002:00032688       PL_xpvbm_arenaroot
 0002:000304C8       PL_xpvbm_root
 0002:00032694       PL_xpvcv_arenaroot
 0002:000304D0       PL_xpvcv_root
 0002:000326B0       PL_xpvhv_arenaroot
 0002:000304D8       PL_xpvhv_root
 0002:000326B8       PL_xpviv_arenaroot
 0002:000304E0       PL_xpviv_root
 0002:000326D0       PL_xpvlv_arenaroot
 0002:000304F0       PL_xpvlv_root
 0002:000326C4       PL_xpvmg_arenaroot
 0002:000304E8       PL_xpvmg_root
 0002:000326D8       PL_xpvnv_arenaroot
 0002:000304F4       PL_xpvnv_root
 0002:00032658       PL_xpv_arenaroot
 0002:00030458       PL_xpv_root
 0002:0003265C       PL_xrv_arenaroot
 0002:00030464       PL_xrv_root
 0002:00007904       PL_Yes
 0002:0003273C       PL_yychar
 0002:000328C8       PL_yydebug
 0002:000302D0       PL_yyerrflag
 0002:00032888       PL_yylval
 0002:00032958       PL_yynerrs
 0002:000326E8       PL_yyval
 0002:00030470       PMWIN_entries
 0000:00000000  Imp  pow                  (EMXLIBCM.918)
 0002:00030598       pWinOpenWindowDC
 0002:00032644       pWinQuerySysValue
 0002:000305CC       pWinSetSysValue
 0000:00000000  Imp  qsort                (EMXLIBCM.740)
 0001:000B2A20       random
 0000:00000000  Imp  realloc              (EMXLIBCM.403)
 0001:000B2500       recvfrom
 0000:00000000  Imp  rename               (EMXLIBCM.550)
 0001:000A8D60       replaceModule
 0001:000A9A78       ResetWinError
 0001:000B2554       send
 0001:000B2580       sendto
 0001:000B0CDC       setgrent
 0001:000A6C98       sethostent
 0000:00000000  Imp  setjmp               (EMXLIBCM.748)
 0001:000B48C4       setkey
 0001:000B4870       setkey_r
 0000:00000000  Imp  setlocale            (EMXLIBCM.1260)
 0001:000A6CB0       setnetent
 0001:000A6EC0       setpriority
 0001:000A6CC8       setprotoent
 0001:000A6CE0       setservent
 0001:000B25D4       setsockopt
 0001:000B291C       setstate
 0001:000A8B10       settmppath
 0000:00000000  Imp  setvbuf              (EMXLIBCM.557)
 0001:0000706C       set_emergency_buffer
 0001:000B2604       shutdown
 0000:00000000  Imp  sin                  (EMXLIBCM.920)
 0001:000B262C       socket
 0000:00000000  Imp  sprintf              (EMXLIBCM.559)
 0000:00000000  Imp  sqrt                 (EMXLIBCM.922)
 0001:000B26A4       srandom
 0000:00000000  Imp  strcat               (EMXLIBCM.212)
 0000:00000000  Imp  strchr               (EMXLIBCM.213)
 0000:00000000  Imp  strcmp               (EMXLIBCM.214)
 0000:00000000  Imp  strcpy               (EMXLIBCM.215)
 0000:00000000  Imp  strerror             (EMXLIBCM.218)
 0000:00000000  Imp  strftime             (EMXLIBCM.1009)
 0000:00000000  Imp  strlen               (EMXLIBCM.220)
 0000:00000000  Imp  strncmp              (EMXLIBCM.223)
 0000:00000000  Imp  strncpy              (EMXLIBCM.224)
 0000:00000000  Imp  strrchr              (EMXLIBCM.228)
 0000:00000000  Imp  strtoul              (EMXLIBCM.755)
 0000:00000000  Imp  strxfrm              (EMXLIBCM.242)
 0001:000ABEFC       sv_keys
 0000:00000000  Imp  time                 (EMXLIBCM.1010)
 0000:00000000  Imp  tmpfile              (EMXLIBCM.564)
 0002:000086A4       tmppath
 0000:00000000  Imp  ungetc               (EMXLIBCM.568)
 0000:00000000  Imp  vsprintf             (EMXLIBCM.576)
 0001:000945F4       XS_attributes_bootstrap
 0001:00094B08       XS_attributes_reftype
 0001:000947C8       XS_attributes__fetch_attrs
 0001:000949A8       XS_attributes__guess_stash
 0001:00094710       XS_attributes__modify_attrs
 0001:00094BCC       XS_attributes__warn_reserved
 0001:000AD75C       XS_Cwd_change_drive
 0001:000AD5B8       XS_Cwd_current_drive
 0001:000AE148       XS_Cwd_extLibpath
 0001:000AE2E4       XS_Cwd_extLibpath_set
 0001:000ADBE0       XS_Cwd_sys_abspath
 0001:000AD680       XS_Cwd_sys_chdir
 0001:000ADB0C       XS_Cwd_sys_cwd
 0001:000AD858       XS_Cwd_sys_is_absolute
 0001:000ADA38       XS_Cwd_sys_is_relative
 0001:000AD958       XS_Cwd_sys_is_rooted
 0001:000B1D80       XS_DynaLoader_dl_error
 0001:000B1AF4       XS_DynaLoader_dl_find_symbol
 0001:000B1C80       XS_DynaLoader_dl_install_xsub
 0001:000B18C4       XS_DynaLoader_dl_load_file
 0001:000B1BE4       XS_DynaLoader_dl_undef_symbols
 0001:000B19E0       XS_DynaLoader_dl_unload_file
 0001:000A960C       XS_DynaLoader_mod2fname
 0001:000A8BE0       XS_File__Copy_syscopy
 0001:0009412C       XS_Internals_hash_seed
 0001:000941D8       XS_Internals_HvREHASH
 0001:000938AC       XS_Internals_hv_clear_placehold
 0001:00094174       XS_Internals_rehash_seed
 0001:000936C0       XS_Internals_SvREADONLY
 0001:000937F0       XS_Internals_SvREFCNT
 0001:000AD164       XS_OS2_Beep
 0001:000AD03C       XS_OS2_BootDrive
 0001:000ABA34       XS_OS2_DevCap
 0001:000AE898       XS_OS2_DLLname
 0001:000AAC50       XS_OS2_Error
 0001:000AADE8       XS_OS2_Errors2Drive
 0001:000AF074       XS_OS2_get_control87
 0001:000AF2A4       XS_OS2_incrMaxFHandles
 0001:000AF6F8       Xs_OS2_init
 0001:000AEC1C       XS_OS2_libPath
 0001:000AD268       XS_OS2_MorphPM
 0001:000AB4B4       XS_OS2_msCounter
 0001:000AB1F8       XS_OS2_ms_sleep
 0001:000AEEBC       XS_OS2_mytype
 0001:000AEFE0       XS_OS2_mytype_set
 0001:000A9018       XS_OS2_perfSysCall
 0001:000AD494       XS_OS2_Process_Messages
 0001:000A8E0C       XS_OS2_replaceModule
 0001:000AD3A8       XS_OS2_Serve_Messages
 0001:000AF148       XS_OS2_set_control87
 0001:000ACCB4       XS_OS2_SysInfo
 0001:000ACEB4       XS_OS2_SysInfoFor
 0001:000AC574       XS_OS2_SysValues
 0001:000AC8F4       XS_OS2_SysValues_set
 0001:000AB2E0       XS_OS2_Timer
 0001:000AD32C       XS_OS2_UnMorphPM
 0001:000AED94       XS_OS2__control87
 0001:000AEA3C       XS_OS2__headerInfo
 0001:000AB570       XS_OS2__InfoTable
 0001:000939F8       XS_PerlIO_get_layers
 0001:00097284       XS_PerlIO__Layer__find
 0001:000971FC       XS_PerlIO__Layer__NoWarnings
 0001:00093984       XS_Regexp_DESTROY
 0001:00092C14       XS_UNIVERSAL_can
 0001:00092AE0       XS_UNIVERSAL_isa
 0001:00092E88       XS_UNIVERSAL_VERSION
 0001:00093354       XS_utf8_decode
 0001:000934C8       XS_utf8_downgrade
 0001:000932E4       XS_utf8_encode
 0001:000931A4       XS_utf8_is_utf8
 0001:000935A4       XS_utf8_native_to_unicode
 0001:00093644       XS_utf8_unicode_to_native
 0001:000933F8       XS_utf8_upgrade
 0001:00093220       XS_utf8_valid
 0000:00000000  Imp  _16_Dos16GetInfoSeg  (DOSCALLS.8)
 0000:00000000  Imp  _abspath             (EMXLIBCM.760)
 0000:00000000  Imp  _access              (EMXLIBCM.500)
 0000:00000000  Imp  _alarm               (EMXLIBCM.702)
 0000:00000000  Imp  _chdir               (EMXLIBCM.708)
 0000:00000000  Imp  _chdir2              (EMXLIBCM.764)
 0000:00000000  Imp  _chdrive             (EMXLIBCM.765)
 0000:00000000  Imp  _chmod               (EMXLIBCM.501)
 0000:00000000  Imp  _close               (EMXLIBCM.504)
 0000:00000000  Imp  _closedir            (EMXLIBCM.709)
 0000:00000000  Imp  _control87           (EMXLIBCM.928)
 0000:00000000  Imp  _CRT_init            (EMXLIBCM.845)
 0000:00000000  Imp  _CRT_term            (EMXLIBCM.819)
 0000:00000000  Imp  _ctype               (EMXLIBCM.315)
 0002:00000000       _data
 0001:000B4A50       _DLL_InitTerm
 0001:000AE94C       _Dos32QueryHeaderInfo
 0001:000AE654       _DosQueryModFromEIP
 0000:00000000  Imp  _dup                 (EMXLIBCM.506)
 0000:00000000  Imp  _dup2                (EMXLIBCM.507)
 0002:00008790       _edata
 0000:00000000  Imp  _emxload_env         (EMXLIBCM.1160)
 0000:00000000  Imp  _emx_16to32          (EMX.3)
 0000:00000000  Imp  _emx_32to16          (EMX.4)
 0000:00000000  Imp  _emx_env             (EMXLIBCM.804)
 0000:00000000  Imp  _emx_exception       (EMX.6)
 0000:00000000  Imp  _emx_init            (EMX.1)
 0000:00000000  Imp  _emx_rev             (EMXLIBCM.834)
 0000:00000000  Imp  _emx_syscall         (EMX.2)
 0000:00000000  Imp  _emx_thunk1          (EMX.5)
 0000:00000000  Imp  _emx_vprt            (EMXLIBCM.806)
 0002:00032960       _end
 0000:00000000  Imp  _endpwent            (EMXLIBCM.711)
 0000:00000000  Imp  _environ             (EMXLIBCM.802)
 0000:00000000  Imp  _errno               (EMXLIBCM.846)
 0001:000B4B70       _etext
 0000:00000000  Imp  _execl               (EMXLIBCM.100)
 0000:00000000  Imp  _execname            (EMXLIBCM.839)
 0000:00000000  Imp  _execv               (EMXLIBCM.104)
 0000:00000000  Imp  _execvp              (EMXLIBCM.106)
 0000:00000000  Imp  _exit                (EMXLIBCM.771)
 0000:00000000  Imp  _fcntl               (EMXLIBCM.511)
 0000:00000000  Imp  _fdopen              (EMXLIBCM.512)
 0000:00000000  Imp  _fd_flags            (EMXLIBCM.641)
 0000:00000000  Imp  _fd_init             (EMXLIBCM.643)
 0000:00000000  Imp  _flock               (EMXLIBCM.625)
 0000:00000000  Imp  _fnisabs             (EMXLIBCM.776)
 0000:00000000  Imp  _fnisrel             (EMXLIBCM.833)
 0000:00000000  Imp  _fork                (EMXLIBCM.108)
 0000:00000000  Imp  _fstat               (EMXLIBCM.530)
 0000:00000000  Imp  _ftruncate           (EMXLIBCM.533)
 0000:00000000  Imp  _gcvt                (EMXLIBCM.847)
 0000:00000000  Imp  _getcwd2             (EMXLIBCM.779)
 0000:00000000  Imp  _getdrive            (EMXLIBCM.780)
 0000:00000000  Imp  _getegid             (EMXLIBCM.715)
 0000:00000000  Imp  _geteuid             (EMXLIBCM.717)
 0000:00000000  Imp  _getgid              (EMXLIBCM.718)
 0000:00000000  Imp  _getgrgid            (EMXLIBCM.851)
 0000:00000000  Imp  _getgrnam            (EMXLIBCM.852)
 0000:00000000  Imp  _getgroups           (EMXLIBCM.854)
 0000:00000000  Imp  _getlogin            (EMXLIBCM.719)
 0000:00000000  Imp  _getpgrp             (EMXLIBCM.857)
 0000:00000000  Imp  _getpid              (EMXLIBCM.109)
 0000:00000000  Imp  _getppid             (EMXLIBCM.110)
 0000:00000000  Imp  _getpwent            (EMXLIBCM.722)
 0000:00000000  Imp  _getpwnam            (EMXLIBCM.723)
 0000:00000000  Imp  _getpwuid            (EMXLIBCM.724)
 0000:00000000  Imp  _gettimeofday        (EMXLIBCM.1005)
 0000:00000000  Imp  _getuid              (EMXLIBCM.725)
 0002:00000018       _heap_base
 0002:00000020       _heap_brk
 0002:0000001C       _heap_end
 0001:00000012       _init
 0000:00000000  Imp  _ioctl               (EMXLIBCM.537)
 0000:00000000  Imp  _isterm              (EMXLIBCM.589)
 0000:00000000  Imp  _kill                (EMXLIBCM.727)
 0000:00000000  Imp  _localeconv          (EMXLIBCM.1262)
 0000:00000000  Imp  _lseek               (EMXLIBCM.539)
 0000:00000000  Imp  _mkdir               (EMXLIBCM.822)
 0001:000B4B24       _msgseg32
 0000:00000000  Imp  _open                (EMXLIBCM.541)
 0000:00000000  Imp  _opendir             (EMXLIBCM.732)
 0000:00000000  Imp  _org_environ         (EMXLIBCM.803)
 0000:00000000  Imp  _osmajor             (EMXLIBCM.807)
 0000:00000000  Imp  _osminor             (EMXLIBCM.808)
 0000:00000000  Imp  _pause               (EMXLIBCM.831)
 0000:00000000  Imp  _pclose              (EMXLIBCM.542)
 0000:00000000  Imp  _pipe                (EMXLIBCM.543)
 0000:00000000  Imp  _read                (EMXLIBCM.548)
 0000:00000000  Imp  _readdir             (EMXLIBCM.743)
 0000:00000000  Imp  _response            (EMXLIBCM.789)
 0000:00000000  Imp  _rewinddir           (EMXLIBCM.744)
 0000:00000000  Imp  _rmdir               (EMXLIBCM.745)
 0000:00000000  Imp  _sbrk                (EMXLIBCM.746)
 0000:00000000  Imp  _seekdir             (EMXLIBCM.747)
 0000:00000000  Imp  _select              (EMXLIBCM.553)
 0000:00000000  Imp  _setgid              (EMXLIBCM.855)
 0000:00000000  Imp  _setmode             (EMXLIBCM.556)
 0000:00000000  Imp  _setpgid             (EMXLIBCM.859)
 0000:00000000  Imp  _setpwent            (EMXLIBCM.749)
 0000:00000000  Imp  _setsyserrno         (EMXLIBCM.876)
 0000:00000000  Imp  _setuid              (EMXLIBCM.856)
 0000:00000000  Imp  _sigaction           (EMXLIBCM.123)
 0000:00000000  Imp  _sigaddset           (EMXLIBCM.124)
 0000:00000000  Imp  _sigemptyset         (EMXLIBCM.126)
 0000:00000000  Imp  _siglongjmp          (EMXLIBCM.862)
 0000:00000000  Imp  _sigprocmask         (EMXLIBCM.130)
 0000:00000000  Imp  _sigsetjmp           (EMXLIBCM.861)
 0000:00000000  Imp  _sleep               (EMXLIBCM.751)
 0000:00000000  Imp  _sleep2              (EMXLIBCM.823)
 0000:00000000  Imp  _snprintf            (EMXLIBCM.635)
 0000:00000000  Imp  _spawnl              (EMXLIBCM.112)
 0000:00000000  Imp  _spawnvp             (EMXLIBCM.118)
 0000:00000000  Imp  _stat                (EMXLIBCM.561)
 0000:00000000  Imp  _streamv             (EMXLIBCM.595)
 0000:00000000  Imp  _stricmp             (EMXLIBCM.219)
 0000:00000000  Imp  _strnicmp            (EMXLIBCM.225)
 0001:000B2690       _swapl
 0001:000B269C       _swaps
 0000:00000000  Imp  _sysconf             (EMXLIBCM.848)
 0000:00000000  Imp  _syserrno            (EMXLIBCM.796)
 0000:00000000  Imp  _telldir             (EMXLIBCM.758)
 0000:00000000  Imp  _tempnam             (EMXLIBCM.563)
 0001:00000000       _text
 0000:00000000  Imp  _times               (EMXLIBCM.1011)
 0000:00000000  Imp  _truncate            (EMXLIBCM.566)
 0001:000B398C       _ufc_clearmem
 0001:000B39A8       _ufc_copymem
 0001:000B4358       _ufc_dofinalperm_r
 0001:000B48D8       _ufc_doit_r
 0002:00010050       _ufc_foobar
 0001:000B4228       _ufc_mk_keytab_r
 0001:000B4544       _ufc_output_conversion_r
 0001:000B4100       _ufc_setup_salt_r
 0000:00000000  Imp  _uflags              (EMXLIBCM.871)
 0000:00000000  Imp  _umask               (EMXLIBCM.567)
 0000:00000000  Imp  _unlink              (EMXLIBCM.569)
 0000:00000000  Imp  _utime               (EMXLIBCM.570)
 0000:00000000  Imp  _wait                (EMXLIBCM.121)
 0000:00000000  Imp  _waitpid             (EMXLIBCM.122)
 0000:00000000  Imp  _wildcard            (EMXLIBCM.801)
 0000:00000000  Imp  _write               (EMXLIBCM.578)
 0000:00000000  Imp  __accept             (EMXLIBCM.1474)
 0000:00000000  Imp  __bind               (EMXLIBCM.1475)
 0000:00000000  Imp  __chmod              (EMXLIBCM.1404)
 0000:00000000  Imp  __close              (EMXLIBCM.1407)
 0000:00000000  Imp  __cmpdi2             (EMXLIBCM.1307)
 0000:00000000  Imp  __connect            (EMXLIBCM.1476)
 0001:000B4B60       __crtexit1__
 0001:000B4B58       __crtinit1__
 0001:000B4AA4       __ctordtorInit
 0000:00000000  Imp  __ctordtorInit1      (EMXLIBCM.843)
 0001:000B4AEC       __ctordtorTerm
 0000:00000000  Imp  __ctordtorTerm1      (EMXLIBCM.844)
 0001:000B4B48       __CTOR_LIST__
 0001:000B4B50       __DTOR_LIST__
 0000:00000000  Imp  __eh_frame_init      (EMXLIBCM.1370)
 0001:000B4B68       __eh_frame__
 0000:00000000  Imp  __fixunsdfdi         (EMXLIBCM.1311)
 0000:00000000  Imp  __gethostbyaddr      (EMXLIBCM.1477)
 0000:00000000  Imp  __gethostbyname      (EMXLIBCM.1478)
 0000:00000000  Imp  __getnetbyaddr       (EMXLIBCM.1481)
 0000:00000000  Imp  __getnetbyname       (EMXLIBCM.1482)
 0000:00000000  Imp  __getpeername        (EMXLIBCM.1483)
 0000:00000000  Imp  __getprotobyname     (EMXLIBCM.1484)
 0000:00000000  Imp  __getprotobynumber   (EMXLIBCM.1485)
 0000:00000000  Imp  __getservbyname      (EMXLIBCM.1486)
 0000:00000000  Imp  __getservbyport      (EMXLIBCM.1487)
 0000:00000000  Imp  __getsockname        (EMXLIBCM.1489)
 0000:00000000  Imp  __getsockopt         (EMXLIBCM.1490)
 0001:000B39CC       __init_des_r
 0000:00000000  Imp  __listen             (EMXLIBCM.1491)
 0001:000B4A24       __main
 0000:00000000  Imp  __os_version         (EMXLIBCM.1435)
 0000:00000000  Imp  __recvfrom           (EMXLIBCM.1493)
 0000:00000000  Imp  __send               (EMXLIBCM.1494)
 0000:00000000  Imp  __sendto             (EMXLIBCM.1495)
 0000:00000000  Imp  __setsockopt         (EMXLIBCM.1496)
 0000:00000000  Imp  __shutdown           (EMXLIBCM.1497)
 0000:00000000  Imp  __socket             (EMXLIBCM.1498)
 0001:0000000C       __syscall
 0000:00000000  Imp  __udivdi3            (EMXLIBCM.1319)
 0000:00000000  Imp  __umoddi3            (EMXLIBCM.1321)

  Address         Publics by Value

 0000:00000000  Imp  DosTrueGetMessage    (MSG.6)
 0000:00000000  Imp  fprintf              (EMXLIBCM.521)
 0000:00000000  Imp  _emx_syscall         (EMX.2)
 0000:00000000  Imp  sin                  (EMXLIBCM.920)
 0000:00000000  Imp  _gettimeofday        (EMXLIBCM.1005)
 0000:00000000  Imp  _rmdir               (EMXLIBCM.745)
 0000:00000000  Imp  _environ             (EMXLIBCM.802)
 0000:00000000  Imp  strncmp              (EMXLIBCM.223)
 0000:00000000  Imp  strrchr              (EMXLIBCM.228)
 0000:00000000  Imp  __getservbyport      (EMXLIBCM.1487)
 0000:00000000  Imp  __shutdown           (EMXLIBCM.1497)
 0000:00000000  Imp  free                 (EMXLIBCM.401)
 0000:00000000  Imp  _getpwnam            (EMXLIBCM.723)
 0000:00000000  Imp  pow                  (EMXLIBCM.918)
 0000:00000000  Imp  strchr               (EMXLIBCM.213)
 0000:00000000  Imp  strcmp               (EMXLIBCM.214)
 0000:00000000  Imp  DosOpenMutexSem      (DOSCALLS.332)
 0000:00000000  Imp  time                 (EMXLIBCM.1010)
 0000:00000000  Imp  DosQuerySysInfo      (DOSCALLS.348)
 0000:00000000  Imp  _lseek               (EMXLIBCM.539)
 0000:00000000  Imp  _emx_exception       (EMX.6)
 0000:00000000  Imp  setjmp               (EMXLIBCM.748)
 0000:00000000  Imp  _getpwuid            (EMXLIBCM.724)
 0000:00000000  Imp  _sigprocmask         (EMXLIBCM.130)
 0000:00000000  Imp  fmod                 (EMXLIBCM.911)
 0000:00000000  Imp  fwrite               (EMXLIBCM.534)
 0000:00000000  Imp  __udivdi3            (EMXLIBCM.1319)
 0000:00000000  Imp  log                  (EMXLIBCM.915)
 0000:00000000  Imp  DosExitMustComplete  (DOSCALLS.381)
 0000:00000000  Imp  _opendir             (EMXLIBCM.732)
 0000:00000000  Imp  _chdrive             (EMXLIBCM.765)
 0000:00000000  Imp  strncpy              (EMXLIBCM.224)
 0000:00000000  Imp  _utime               (EMXLIBCM.570)
 0000:00000000  Imp  strftime             (EMXLIBCM.1009)
 0000:00000000  Imp  __getnetbyname       (EMXLIBCM.1482)
 0000:00000000  Imp  _spawnl              (EMXLIBCM.112)
 0000:00000000  Imp  getenv               (EMXLIBCM.716)
 0000:00000000  Imp  strtoul              (EMXLIBCM.755)
 0000:00000000  Imp  _sleep               (EMXLIBCM.751)
 0000:00000000  Imp  _fd_flags            (EMXLIBCM.641)
 0000:00000000  Imp  strlen               (EMXLIBCM.220)
 0000:00000000  Imp  _fnisabs             (EMXLIBCM.776)
 0000:00000000  Imp  exit                 (EMXLIBCM.712)
 0000:00000000  Imp  _execvp              (EMXLIBCM.106)
 0000:00000000  Imp  __connect            (EMXLIBCM.1476)
 0000:00000000  Imp  _emx_rev             (EMXLIBCM.834)
 0000:00000000  Imp  atan2                (EMXLIBCM.903)
 0000:00000000  Imp  __getpeername        (EMXLIBCM.1483)
 0000:00000000  Imp  __recvfrom           (EMXLIBCM.1493)
 0000:00000000  Imp  DosSetRelMaxFH       (DOSCALLS.382)
 0000:00000000  Imp  _streamv             (EMXLIBCM.595)
 0000:00000000  Imp  strcat               (EMXLIBCM.212)
 0000:00000000  Imp  atoi                 (EMXLIBCM.705)
 0000:00000000  Imp  __getnetbyaddr       (EMXLIBCM.1481)
 0000:00000000  Imp  DosUnsetExceptionHandler (DOSCALLS.355)
 0000:00000000  Imp  __socket             (EMXLIBCM.1498)
 0000:00000000  Imp  __listen             (EMXLIBCM.1491)
 0000:00000000  Imp  _CRT_init            (EMXLIBCM.845)
 0000:00000000  Imp  DosSetPriority       (DOSCALLS.236)
 0000:00000000  Imp  _fstat               (EMXLIBCM.530)
 0000:00000000  Imp  _truncate            (EMXLIBCM.566)
 0000:00000000  Imp  _isterm              (EMXLIBCM.589)
 0000:00000000  Imp  setvbuf              (EMXLIBCM.557)
 0000:00000000  Imp  _fnisrel             (EMXLIBCM.833)
 0000:00000000  Imp  DosEnterMustComplete (DOSCALLS.380)
 0000:00000000  Imp  _dup                 (EMXLIBCM.506)
 0000:00000000  Imp  sqrt                 (EMXLIBCM.922)
 0000:00000000  Imp  _org_environ         (EMXLIBCM.803)
 0000:00000000  Imp  __getsockopt         (EMXLIBCM.1490)
 0000:00000000  Imp  _times               (EMXLIBCM.1011)
 0000:00000000  Imp  __getservbyname      (EMXLIBCM.1486)
 0000:00000000  Imp  fgetc                (EMXLIBCM.514)
 0000:00000000  Imp  _setpwent            (EMXLIBCM.749)
 0000:00000000  Imp  fread                (EMXLIBCM.525)
 0000:00000000  Imp  fseek                (EMXLIBCM.528)
 0000:00000000  Imp  _errno               (EMXLIBCM.846)
 0000:00000000  Imp  _stricmp             (EMXLIBCM.219)
 0000:00000000  Imp  DosCreateEventSem    (DOSCALLS.324)
 0000:00000000  Imp  ftell                (EMXLIBCM.532)
 0000:00000000  Imp  _dup2                (EMXLIBCM.507)
 0000:00000000  Imp  _osmajor             (EMXLIBCM.807)
 0000:00000000  Imp  DosQueryHType        (DOSCALLS.224)
 0000:00000000  Imp  exp                  (EMXLIBCM.908)
 0000:00000000  Imp  _gcvt                (EMXLIBCM.847)
 0000:00000000  Imp  frexp                (EMXLIBCM.912)
 0000:00000000  Imp  _read                (EMXLIBCM.548)
 0000:00000000  Imp  DosError             (DOSCALLS.212)
 0000:00000000  Imp  _sbrk                (EMXLIBCM.746)
 0000:00000000  Imp  DosWaitEventSem      (DOSCALLS.329)
 0000:00000000  Imp  _wait                (EMXLIBCM.121)
 0000:00000000  Imp  DosWrite             (DOSCALLS.282)
 0000:00000000  Imp  _ctype               (EMXLIBCM.315)
 0000:00000000  Imp  DosSuppressPopUps    (DOSCALLS.114)
 0000:00000000  Imp  _wildcard            (EMXLIBCM.801)
 0000:00000000  Imp  _kill                (EMXLIBCM.727)
 0000:00000000  Imp  _pipe                (EMXLIBCM.543)
 0000:00000000  Imp  _sigsetjmp           (EMXLIBCM.861)
 0000:00000000  Imp  floor                (EMXLIBCM.910)
 0000:00000000  Imp  fopen                (EMXLIBCM.520)
 0000:00000000  Imp  realloc              (EMXLIBCM.403)
 0000:00000000  Imp  _waitpid             (EMXLIBCM.122)
 0000:00000000  Imp  __ctordtorInit1      (EMXLIBCM.843)
 0000:00000000  Imp  _fork                (EMXLIBCM.108)
 0000:00000000  Imp  _getgid              (EMXLIBCM.718)
 0000:00000000  Imp  _16_Dos16GetInfoSeg  (DOSCALLS.8)
 0000:00000000  Imp  DosExitCritSec       (DOSCALLS.233)
 0000:00000000  Imp  __getprotobyname     (EMXLIBCM.1484)
 0000:00000000  Imp  __cmpdi2             (EMXLIBCM.1307)
 0000:00000000  Imp  DosSleep             (DOSCALLS.229)
 0000:00000000  Imp  _sleep2              (EMXLIBCM.823)
 0000:00000000  Imp  _execl               (EMXLIBCM.100)
 0000:00000000  Imp  DosCopy              (DOSCALLS.258)
 0000:00000000  Imp  _getpid              (EMXLIBCM.109)
 0000:00000000  Imp  setlocale            (EMXLIBCM.1260)
 0000:00000000  Imp  _getuid              (EMXLIBCM.725)
 0000:00000000  Imp  _open                (EMXLIBCM.541)
 0000:00000000  Imp  qsort                (EMXLIBCM.740)
 0000:00000000  Imp  _write               (EMXLIBCM.578)
 0000:00000000  Imp  _emx_32to16          (EMX.4)
 0000:00000000  Imp  DosQueryModuleName   (DOSCALLS.320)
 0000:00000000  Imp  __ctordtorTerm1      (EMXLIBCM.844)
 0000:00000000  Imp  _exit                (EMXLIBCM.771)
 0000:00000000  Imp  modf                 (EMXLIBCM.917)
 0000:00000000  Imp  DosCloseEventSem     (DOSCALLS.326)
 0000:00000000  Imp  _setgid              (EMXLIBCM.855)
 0000:00000000  Imp  _stat                (EMXLIBCM.561)
 0000:00000000  Imp  DosQuerySysState     (DOSCALLS.368)
 0000:00000000  Imp  _emx_16to32          (EMX.3)
 0000:00000000  Imp  _getpgrp             (EMXLIBCM.857)
 0000:00000000  Imp  _emx_thunk1          (EMX.5)
 0000:00000000  Imp  DosAsyncTimer        (DOSCALLS.350)
 0000:00000000  Imp  _fdopen              (EMXLIBCM.512)
 0000:00000000  Imp  _sigemptyset         (EMXLIBCM.126)
 0000:00000000  Imp  _CRT_term            (EMXLIBCM.819)
 0000:00000000  Imp  freopen              (EMXLIBCM.526)
 0000:00000000  Imp  _chdir2              (EMXLIBCM.764)
 0000:00000000  Imp  DosGetInfoBlocks     (DOSCALLS.312)
 0000:00000000  Imp  _setsyserrno         (EMXLIBCM.876)
 0000:00000000  Imp  _setuid              (EMXLIBCM.856)
 0000:00000000  Imp  _pclose              (EMXLIBCM.542)
 0000:00000000  Imp  _unlink              (EMXLIBCM.569)
 0000:00000000  Imp  DosReleaseMutexSem   (DOSCALLS.335)
 0000:00000000  Imp  memmove              (EMXLIBCM.209)
 0000:00000000  Imp  _setpgid             (EMXLIBCM.859)
 0000:00000000  Imp  __gethostbyaddr      (EMXLIBCM.1477)
 0000:00000000  Imp  _osminor             (EMXLIBCM.808)
 0000:00000000  Imp  _endpwent            (EMXLIBCM.711)
 0000:00000000  Imp  DosBeep              (DOSCALLS.286)
 0000:00000000  Imp  DosQueryProcType     (DOSCALLS.586)
 0000:00000000  Imp  _access              (EMXLIBCM.500)
 0000:00000000  Imp  _emx_init            (EMX.1)
 0000:00000000  Imp  localtime            (EMXLIBCM.1007)
 0000:00000000  Imp  _getcwd2             (EMXLIBCM.779)
 0000:00000000  Imp  tmpfile              (EMXLIBCM.564)
 0000:00000000  Imp  DosQueryProcAddr     (DOSCALLS.321)
 0000:00000000  Imp  _ioctl               (EMXLIBCM.537)
 0000:00000000  Imp  malloc               (EMXLIBCM.402)
 0000:00000000  Imp  _getgrgid            (EMXLIBCM.851)
 0000:00000000  Imp  fclose               (EMXLIBCM.509)
 0000:00000000  Imp  _telldir             (EMXLIBCM.758)
 0000:00000000  Imp  _chmod               (EMXLIBCM.501)
 0000:00000000  Imp  DosEnterCritSec      (DOSCALLS.232)
 0000:00000000  Imp  _readdir             (EMXLIBCM.743)
 0000:00000000  Imp  DosSetExceptionHandler (DOSCALLS.354)
 0000:00000000  Imp  ungetc               (EMXLIBCM.568)
 0000:00000000  Imp  DosSetFileLocks      (DOSCALLS.428)
 0000:00000000  Imp  _umask               (EMXLIBCM.567)
 0000:00000000  Imp  _sigaction           (EMXLIBCM.123)
 0000:00000000  Imp  _getgroups           (EMXLIBCM.854)
 0000:00000000  Imp  vsprintf             (EMXLIBCM.576)
 0000:00000000  Imp  memcpy               (EMXLIBCM.207)
 0000:00000000  Imp  _fcntl               (EMXLIBCM.511)
 0000:00000000  Imp  _getppid             (EMXLIBCM.110)
 0000:00000000  Imp  __chmod              (EMXLIBCM.1404)
 0000:00000000  Imp  _pause               (EMXLIBCM.831)
 0000:00000000  Imp  DosFreeModule        (DOSCALLS.322)
 0000:00000000  Imp  _closedir            (EMXLIBCM.709)
 0000:00000000  Imp  DosLoadModule        (DOSCALLS.318)
 0000:00000000  Imp  strerror             (EMXLIBCM.218)
 0000:00000000  Imp  __os_version         (EMXLIBCM.1435)
 0000:00000000  Imp  __getprotobynumber   (EMXLIBCM.1485)
 0000:00000000  Imp  _getgrnam            (EMXLIBCM.852)
 0000:00000000  Imp  _getlogin            (EMXLIBCM.719)
 0000:00000000  Imp  _execv               (EMXLIBCM.104)
 0000:00000000  Imp  _setmode             (EMXLIBCM.556)
 0000:00000000  Imp  _ftruncate           (EMXLIBCM.533)
 0000:00000000  Imp  DosCreateMutexSem    (DOSCALLS.331)
 0000:00000000  Imp  _siglongjmp          (EMXLIBCM.862)
 0000:00000000  Imp  _geteuid             (EMXLIBCM.717)
 0000:00000000  Imp  _getdrive            (EMXLIBCM.780)
 0000:00000000  Imp  strxfrm              (EMXLIBCM.242)
 0000:00000000  Imp  _snprintf            (EMXLIBCM.635)
 0000:00000000  Imp  __gethostbyname      (EMXLIBCM.1478)
 0000:00000000  Imp  rename               (EMXLIBCM.550)
 0000:00000000  Imp  _sysconf             (EMXLIBCM.848)
 0000:00000000  Imp  __send               (EMXLIBCM.1494)
 0000:00000000  Imp  _fd_init             (EMXLIBCM.643)
 0000:00000000  Imp  _uflags              (EMXLIBCM.871)
 0000:00000000  Imp  fflush               (EMXLIBCM.513)
 0000:00000000  Imp  sprintf              (EMXLIBCM.559)
 0000:00000000  Imp  clearerr             (EMXLIBCM.503)
 0000:00000000  Imp  __eh_frame_init      (EMXLIBCM.1370)
 0000:00000000  Imp  _response            (EMXLIBCM.789)
 0000:00000000  Imp  __umoddi3            (EMXLIBCM.1321)
 0000:00000000  Imp  _chdir               (EMXLIBCM.708)
 0000:00000000  Imp  _spawnvp             (EMXLIBCM.118)
 0000:00000000  Imp  memchr               (EMXLIBCM.205)
 0000:00000000  Imp  _close               (EMXLIBCM.504)
 0000:00000000  Imp  _strnicmp            (EMXLIBCM.225)
 0000:00000000  Imp  atexit               (EMXLIBCM.703)
 0000:00000000  Imp  _localeconv          (EMXLIBCM.1262)
 0000:00000000  Imp  _flock               (EMXLIBCM.625)
 0000:00000000  Imp  _rewinddir           (EMXLIBCM.744)
 0000:00000000  Imp  cos                  (EMXLIBCM.906)
 0000:00000000  Imp  _alarm               (EMXLIBCM.702)
 0000:00000000  Imp  _getpwent            (EMXLIBCM.722)
 0000:00000000  Imp  __accept             (EMXLIBCM.1474)
 0000:00000000  Imp  _seekdir             (EMXLIBCM.747)
 0000:00000000  Imp  __bind               (EMXLIBCM.1475)
 0000:00000000  Imp  longjmp              (EMXLIBCM.730)
 0000:00000000  Imp  _getegid             (EMXLIBCM.715)
 0000:00000000  Imp  memset               (EMXLIBCM.210)
 0000:00000000  Imp  _emxload_env         (EMXLIBCM.1160)
 0000:00000000  Imp  _sigaddset           (EMXLIBCM.124)
 0000:00000000  Imp  _select              (EMXLIBCM.553)
 0000:00000000  Imp  __getsockname        (EMXLIBCM.1489)
 0000:00000000  Imp  strcpy               (EMXLIBCM.215)
 0000:00000000  Imp  __sendto             (EMXLIBCM.1495)
 0000:00000000  Imp  DosQueryAppType      (DOSCALLS.323)
 0000:00000000  Imp  _abspath             (EMXLIBCM.760)
 0000:00000000  Imp  __setsockopt         (EMXLIBCM.1496)
 0000:00000000  Imp  DosCloseMutexSem     (DOSCALLS.333)
 0000:00000000  Imp  gmtime               (EMXLIBCM.1006)
 0000:00000000  Imp  _emx_env             (EMXLIBCM.804)
 0000:00000000  Imp  _tempnam             (EMXLIBCM.563)
 0000:00000000  Imp  __fixunsdfdi         (EMXLIBCM.1311)
 0000:00000000  Imp  _execname            (EMXLIBCM.839)
 0000:00000000  Imp  DosExit              (DOSCALLS.234)
 0000:00000000  Imp  DosRequestMutexSem   (DOSCALLS.334)
 0000:00000000  Imp  _syserrno            (EMXLIBCM.796)
 0000:00000000  Imp  _control87           (EMXLIBCM.928)
 0000:00000000  Imp  __close              (EMXLIBCM.1407)
 0000:00000000  Imp  _mkdir               (EMXLIBCM.822)
 0000:00000000  Imp  _emx_vprt            (EMXLIBCM.806)
 0001:00000000       _text
 0001:0000000C       __syscall
 0001:00000012       _init
 0001:00000028       perl_alloc
 0001:00000058       perl_construct
 0001:000002F0       Perl_nothreadhook
 0001:000003F4       perl_destruct
 0001:000010B0       perl_free
 0001:000010C0       Perl_call_atexit
 0001:00001140       perl_parse
 0001:000026A4       perl_run
 0001:000029CC       Perl_get_sv
 0001:000029EC       Perl_get_av
 0001:00002A34       Perl_get_hv
 0001:00002A7C       Perl_get_cv
 0001:00002B00       Perl_call_argv
 0001:00002B9C       Perl_call_pv
 0001:00002BB8       Perl_call_method
 0001:00002BF8       Perl_call_sv
 0001:000031F8       Perl_eval_sv
 0001:00003490       Perl_eval_pv
 0001:000035AC       Perl_require_pv
 0001:00003718       Perl_magicname
 0001:000041D4       Perl_moreswitches
 0001:00004E2C       Perl_my_unexec
 0001:00005AE4       Perl_doing_taint
 0001:00005BF8       Perl_init_debugger
 0001:00005CF8       Perl_init_stacks
 0001:0000605C       Perl_init_argv_symbols
 0001:000068D0       Perl_call_list
 0001:00006C74       Perl_my_exit
 0001:00006C9C       Perl_my_failure_exit
 0001:0000706C       set_emergency_buffer
 0001:00007334       Perl_malloc
 0001:0000898C       Perl_mfree
 0001:00008ADC       Perl_realloc
 0001:00008E94       Perl_calloc
 0001:00008EE4       Perl_strdup
 0001:00008F2C       Perl_putenv
 0001:00008FE4       Perl_malloced_size
 0001:00009060       Perl_get_mstats
 0001:00009770       Perl_dump_mstats
 0001:00009E94       Perl_gv_AVadd
 0001:00009EE4       Perl_gv_HVadd
 0001:00009F38       Perl_gv_IOadd
 0001:00009F74       Perl_gv_fetchfile
 0001:0000A088       Perl_gv_init
 0001:0000A404       Perl_gv_fetchmeth
 0001:0000A848       Perl_gv_fetchmeth_autoload
 0001:0000A928       Perl_gv_fetchmethod
 0001:0000A95C       Perl_gv_fetchmethod_autoload
 0001:0000AB88       Perl_gv_autoload4
 0001:0000AE60       Perl_gv_stashpv
 0001:0000AE98       Perl_gv_stashpvn
 0001:0000AF54       Perl_gv_stashsv
 0001:0000B108       Perl_gv_fetchpv
 0001:0000C480       Perl_gv_fullname4
 0001:0000C528       Perl_gv_fullname3
 0001:0000C540       Perl_gv_efullname4
 0001:0000C570       Perl_gv_efullname3
 0001:0000C58C       Perl_gv_fullname
 0001:0000C5B0       Perl_gv_efullname
 0001:0000C5EC       Perl_newIO
 0001:0000C6A0       Perl_gv_check
 0001:0000C7F4       Perl_newGVgen
 0001:0000C820       Perl_gp_ref
 0001:0000C88C       Perl_gp_free
 0001:0000C9F0       Perl_magic_freeovrld
 0001:0000CAAC       Perl_Gv_AMupdate
 0001:0000CE64       Perl_gv_handler
 0001:0000CFEC       Perl_amagic_call
 0001:0000DDC8       Perl_is_gv_magical
 0001:0000E44C       Perl_deprecate
 0001:0000E4A8       Perl_deprecate_old
 0001:0000E544       Perl_lex_start
 0001:0000E830       Perl_lex_end
 0001:0000F1DC       Perl_str_to_version
 0001:00010F6C       Perl_filter_add
 0001:0001102C       Perl_filter_del
 0001:00011080       Perl_filter_read
 0001:000119D4       Perl_yylex
 0001:0001B060       Perl_keyword
 0001:0001EAA0       Perl_pmflag
 0001:00020554       Perl_scan_num
 0001:000212C4       Perl_start_subparse
 0001:00021370       Perl_yywarn
 0001:00021490       Perl_yyerror
 0001:00021BA0       Perl_scan_vstring
 0001:00021E18       Perl_yyparse
 0001:00023A34       Perl_allocmy
 0001:00023BC8       Perl_op_free
 0001:00023C84       Perl_op_clear
 0001:00023E78       Perl_op_null
 0001:00023EA4       Perl_linklist
 0001:00023F00       Perl_scalarkids
 0001:00024030       Perl_scalar
 0001:00024290       Perl_scalarvoid
 0001:00024B50       Perl_listkids
 0001:00024B80       Perl_list
 0001:00024D4C       Perl_scalarseq
 0001:00024F34       Perl_mod
 0001:000258F0       Perl_refkids
 0001:00025924       Perl_ref
 0001:00025EC8       Perl_apply_attrs_string
 0001:00026214       Perl_my_attrs
 0001:000262A4       Perl_my
 0001:000262B4       Perl_sawparens
 0001:000262F8       Perl_bind_match
 0001:000264A0       Perl_invert
 0001:000264C4       Perl_scope
 0001:0002656C       Perl_save_hints
 0001:000265BC       Perl_block_start
 0001:000266AC       Perl_block_end
 0001:00026734       Perl_newPROG
 0001:000268F4       Perl_localize
 0001:00026A78       Perl_jmaybe
 0001:00026AC8       Perl_fold_constants
 0001:00026D14       Perl_gen_constant_list
 0001:00026DF8       Perl_convert
 0001:00026EB0       Perl_append_elem
 0001:00026F18       Perl_append_list
 0001:00026F8C       Perl_prepend_elem
 0001:00027008       Perl_newNULLLIST
 0001:00027018       Perl_force_list
 0001:0002704C       Perl_newLISTOP
 0001:0002712C       Perl_newOP
 0001:000271D4       Perl_newUNOP
 0001:0002729C       Perl_newBINOP
 0001:00027408       Perl_pmtrans
 0001:00027F00       Perl_newPMOP
 0001:00027FC8       Perl_pmruntime
 0001:00028404       Perl_newSVOP
 0001:000284AC       Perl_newPADOP
 0001:00028580       Perl_newGVOP
 0001:000285A0       Perl_newPVOP
 0001:0002866C       Perl_package
 0001:0002878C       Perl_utilize
 0001:00028A8C       Perl_load_module
 0001:00028ABC       Perl_vload_module
 0001:00028BD8       Perl_dofile
 0001:00028C90       Perl_newSLICEOP
 0001:00028DAC       Perl_newASSIGNOP
 0001:00029144       Perl_newSTATEOP
 0001:00029310       Perl_newLOGOP
 0001:0002979C       Perl_newCONDOP
 0001:000299AC       Perl_newRANGE
 0001:00029B04       Perl_newLOOPOP
 0001:00029D3C       Perl_newWHILEOP
 0001:0002A09C       Perl_newFOROP
 0001:0002A308       Perl_newLOOPEX
 0001:0002A400       Perl_cv_undef
 0001:0002A550       Perl_cv_ckproto
 0001:0002A670       Perl_cv_const_sv
 0001:0002A688       Perl_op_const_sv
 0001:0002A7B4       Perl_newMYSUB
 0001:0002A808       Perl_newSUB
 0001:0002A940       Perl_newATTRSUB
 0001:0002B5DC       Perl_newCONSTSUB
 0001:0002B724       Perl_newXS
 0001:0002BB50       Perl_newFORM
 0001:0002BD34       Perl_newANONLIST
 0001:0002BD68       Perl_newANONHASH
 0001:0002BD9C       Perl_newANONSUB
 0001:0002BDB4       Perl_newANONATTRSUB
 0001:0002BDF0       Perl_oopsAV
 0001:0002BE90       Perl_oopsHV
 0001:0002BF60       Perl_newAVREF
 0001:0002BFFC       Perl_newGVREF
 0001:0002C06C       Perl_newHVREF
 0001:0002C11C       Perl_oopsCV
 0001:0002C12C       Perl_newCVREF
 0001:0002C148       Perl_newSVREF
 0001:0002C194       Perl_ck_anoncode
 0001:0002C1EC       Perl_ck_bitop
 0001:0002C2CC       Perl_ck_concat
 0001:0002C2EC       Perl_ck_spair
 0001:0002C3B8       Perl_ck_delete
 0001:0002C44C       Perl_ck_die
 0001:0002C45C       Perl_ck_eof
 0001:0002C4AC       Perl_ck_eval
 0001:0002C584       Perl_ck_exit
 0001:0002C594       Perl_ck_exec
 0001:0002C620       Perl_ck_exists
 0001:0002C76C       Perl_ck_rvconst
 0001:0002C974       Perl_ck_ftst
 0001:0002CB0C       Perl_ck_fun
 0001:0002D4E4       Perl_ck_glob
 0001:0002D6F0       Perl_ck_grep
 0001:0002D850       Perl_ck_index
 0001:0002D88C       Perl_ck_lengthconst
 0001:0002D89C       Perl_ck_lfun
 0001:0002D924       Perl_ck_defined
 0001:0002D9DC       Perl_ck_rfun
 0001:0002D9F8       Perl_ck_listiob
 0001:0002DA88       Perl_ck_sassign
 0001:0002DAF4       Perl_ck_match
 0001:0002DB00       Perl_ck_method
 0001:0002DB88       Perl_ck_null
 0001:0002DBA0       Perl_ck_open
 0001:0002DC98       Perl_ck_repeat
 0001:0002DCE8       Perl_ck_require
 0001:0002DE74       Perl_ck_return
 0001:0002DEB0       Perl_ck_select
 0001:0002DF10       Perl_ck_shift
 0001:0002DF8C       Perl_ck_sort
 0001:0002E25C       Perl_ck_split
 0001:0002E43C       Perl_ck_join
 0001:0002E52C       Perl_ck_subr
 0001:0002ED88       Perl_ck_svconst
 0001:0002ED98       Perl_ck_trunc
 0001:0002EDD8       Perl_ck_substr
 0001:0002EEF0       Perl_peep
 0001:0002FA14       Perl_custom_op_name
 0001:0002FA6C       Perl_custom_op_desc
 0001:0002FB18       Perl_pad_new
 0001:0002FC8C       Perl_pad_undef
 0001:0002FE04       Perl_pad_add_name
 0001:0002FF24       Perl_pad_alloc
 0001:0002FFF4       Perl_pad_add_anon
 0001:00030120       Perl_pad_check_dup
 0001:000302CC       Perl_pad_findmy
 0001:000307DC       Perl_pad_sv
 0001:000307FC       Perl_pad_block_start
 0001:00030880       Perl_intro_my
 0001:0003092C       Perl_pad_leavemy
 0001:00030A40       Perl_pad_swipe
 0001:00030AC4       Perl_pad_reset
 0001:00030AD0       Perl_pad_tidy
 0001:00030CA4       Perl_pad_free
 0001:00030D78       Perl_do_dump_pad
 0001:00030EA0       Perl_cv_clone
 0001:000311FC       Perl_pad_fixup_inner_anons
 0001:00031254       Perl_pad_push
 0001:00031398       PL_regkind
 0001:00031452       PL_varies
 0001:00031463       PL_simple
 0001:00034050       Perl_reginitcolors
 0001:000340F0       Perl_pregcomp
 0001:0003A940       Perl_regdump
 0001:0003A944       Perl_regprop
 0001:0003A948       Perl_re_intuit_string
 0001:0003A990       Perl_pregfree
 0001:0003AC14       Perl_regnext
 0001:0003AD7C       Perl_save_re_context
 0001:0003AFB8       Perl_dump_indent
 0001:0003AFEC       Perl_dump_vindent
 0001:0003B028       Perl_dump_all
 0001:0003B058       Perl_dump_packsubs
 0001:0003B128       Perl_dump_sub
 0001:0003B1C0       Perl_dump_form
 0001:0003B224       Perl_dump_eval
 0001:0003B258       Perl_pv_display
 0001:0003B490       Perl_sv_peek
 0001:0003BA3C       Perl_do_pmop_dump
 0001:0003BC5C       Perl_pmop_dump
 0001:0003BF38       Perl_do_op_dump
 0001:0003C9E0       Perl_op_dump
 0001:0003CA08       Perl_gv_dump
 0001:0003CE60       Perl_do_magic_dump
 0001:0003D350       Perl_magic_dump
 0001:0003D380       Perl_do_hv_dump
 0001:0003D3D0       Perl_do_gv_dump
 0001:0003D430       Perl_do_gvgv_dump
 0001:0003DBF8       Perl_do_sv_dump
 0001:0003F940       Perl_sv_dump
 0001:0003F994       Perl_runops_debug
 0001:0003FAC0       Perl_debop
 0001:0003FCF4       Perl_watch
 0001:0003FD7C       Perl_debprofdump
 0001:0003FDBC       Perl_safesysmalloc
 0001:0003FE20       Perl_safesysrealloc
 0001:0003FEA4       Perl_safesysfree
 0001:0003FEB8       Perl_safesyscalloc
 0001:0003FF40       Perl_delimcpy
 0001:0003FFB8       Perl_instr
 0001:00040018       Perl_ninstr
 0001:000400A4       Perl_rninstr
 0001:00040130       Perl_fbm_compile
 0001:000402D4       Perl_fbm_instr
 0001:00040610       Perl_screaminstr
 0001:00040800       Perl_ibcmp
 0001:00040844       Perl_ibcmp_locale
 0001:00040888       Perl_savepv
 0001:000408C4       Perl_savepvn
 0001:00040908       Perl_savesharedpv
 0001:000409B4       Perl_form
 0001:000409DC       Perl_vform
 0001:00040A34       Perl_mess
 0001:00040AE0       Perl_vmess
 0001:00040C78       Perl_write_to_stderr
 0001:00040F58       Perl_vdie
 0001:00041300       Perl_die
 0001:00041328       Perl_vcroak
 0001:000416F8       Perl_croak
 0001:00041710       Perl_vwarn
 0001:000419B4       Perl_warn
 0001:000419DC       Perl_warner
 0001:00041A08       Perl_vwarner
 0001:0004204C       Perl_my_setenv
 0001:00042220       Perl_setenv_getix
 0001:000422A8       Perl_my_popen_list
 0001:000422F4       Perl_my_popen
 0001:00042644       Perl_atfork_lock
 0001:00042648       Perl_atfork_unlock
 0001:0004264C       Perl_my_fork
 0001:00042654       Perl_rsignal
 0001:0004269C       Perl_rsignal_state
 0001:000426BC       Perl_rsignal_save
 0001:000426FC       Perl_rsignal_restore
 0001:00042710       Perl_my_pclose
 0001:00042864       Perl_wait4pid
 0001:00042A10       Perl_pidgone
 0001:00042A78       my_syspclose
 0001:00042AA0       Perl_repeatcpy
 0001:00042B44       Perl_find_script
 0001:00042F6C       Perl_get_context
 0001:00042F70       Perl_set_context
 0001:00042F74       Perl_get_op_names
 0001:00042F7C       Perl_get_op_descs
 0001:00042F84       Perl_get_no_modify
 0001:00042F8C       Perl_get_opargs
 0001:00042F94       Perl_get_ppaddr
 0001:00042F9C       Perl_getenv_len
 0001:00042FCC       Perl_get_vtbl
 0001:0004314C       Perl_my_fflush_all
 0001:00043258       Perl_report_evil_fh
 0001:00043658       Perl_init_tm
 0001:0004365C       Perl_mini_mktime
 0001:00043A44       Perl_my_strftime
 0001:00043B7C       Perl_getcwd_sv
 0001:00044054       Perl_my_socketpair
 0001:00044284       Perl_sv_nosharing
 0001:00044288       Perl_sv_nolocking
 0001:0004428C       Perl_sv_nounlocking
 0001:000442D4       Perl_parse_unicode_opts
 0001:0004449C       Perl_seed
 0001:000445B8       Perl_get_hash_seed
 0001:0004473C       Perl_mg_magical
 0001:000447B0       Perl_mg_get
 0001:00044890       Perl_mg_set
 0001:00044900       Perl_mg_length
 0001:000449F4       Perl_mg_size
 0001:00044A64       Perl_mg_clear
 0001:00044AB8       Perl_mg_find
 0001:00044AEC       Perl_mg_copy
 0001:00044B98       Perl_mg_free
 0001:00044C1C       Perl_magic_regdata_cnt
 0001:00044C48       Perl_magic_regdatum_get
 0001:00044CB8       Perl_magic_regdatum_set
 0001:00044CDC       Perl_magic_len
 0001:00044F40       Perl_magic_get
 0001:000458E4       Perl_magic_getuvar
 0001:00045904       Perl_magic_setenv
 0001:00045990       Perl_magic_clearenv
 0001:000459E8       Perl_magic_set_all_env
 0001:00045A94       Perl_magic_clear_all_env
 0001:00045B18       Perl_magic_getsig
 0001:00045BFC       Perl_magic_clearsig
 0001:00045D70       Perl_raise_signal
 0001:00045D88       Perl_csighandler
 0001:00045DB0       Perl_despatch_signals
 0001:00045E3C       Perl_magic_setsig
 0001:00046188       Perl_magic_setisa
 0001:00046194       Perl_magic_setamagic
 0001:000461A0       Perl_magic_getnkeys
 0001:00046224       Perl_magic_setnkeys
 0001:00046510       Perl_magic_getpack
 0001:0004653C       Perl_magic_setpack
 0001:000466A8       Perl_magic_clearpack
 0001:000466C8       Perl_magic_sizepack
 0001:00046884       Perl_magic_wipepack
 0001:00046A60       Perl_magic_nextpack
 0001:00046CA0       Perl_magic_existspack
 0001:00046CB8       Perl_magic_setdbline
 0001:00046DE8       Perl_magic_getarylen
 0001:00046E24       Perl_magic_setarylen
 0001:00046E60       Perl_magic_getpos
 0001:00046EF8       Perl_magic_setpos
 0001:00047024       Perl_magic_getglob
 0001:00047064       Perl_magic_setglob
 0001:000470F4       Perl_magic_getsubstr
 0001:0004719C       Perl_magic_setsubstr
 0001:00047290       Perl_magic_gettaint
 0001:000472B4       Perl_magic_settaint
 0001:000472FC       Perl_magic_getvec
 0001:000473F8       Perl_magic_setvec
 0001:00047408       Perl_magic_getdefelem
 0001:00047508       Perl_magic_setdefelem
 0001:0004754C       Perl_vivify_defelem
 0001:000476E8       Perl_magic_killbackrefs
 0001:00047770       Perl_magic_setmglob
 0001:00047788       Perl_magic_setbm
 0001:000477A0       Perl_magic_setfm
 0001:000477B8       Perl_magic_setuvar
 0001:000477DC       Perl_magic_setregexp
 0001:000477F0       Perl_magic_freeregexp
 0001:00047804       Perl_magic_setcollxfrm
 0001:0004782C       Perl_magic_setutf8
 0001:000478B8       Perl_magic_set
 0001:000486F8       Perl_whichsig
 0001:000487CC       Perl_sighandler
 0001:00048D54       Perl_reentrant_size
 0001:00048D58       Perl_reentrant_init
 0001:00048D5C       Perl_reentrant_free
 0001:00048D60       Perl_reentrant_retry
 0001:00048E24       Perl_free_tied_hv_pool
 0001:00048EDC       Perl_hv_fetch
 0001:00049264       Perl_hv_fetch_ent
 0001:00049640       Perl_hv_store
 0001:000496D8       Perl_hv_store_flags
 0001:00049A30       Perl_hv_store_ent
 0001:00049E28       Perl_hv_delete
 0001:0004A1F0       Perl_hv_delete_ent
 0001:0004A5A8       Perl_hv_exists
 0001:0004A820       Perl_hv_exists_ent
 0001:0004ADDC       Perl_hv_ksplit
 0001:0004AF38       Perl_newHV
 0001:0004AF80       Perl_newHVhv
 0001:0004B1B4       Perl_hv_free_ent
 0001:0004B240       Perl_hv_delayfree_ent
 0001:0004B300       Perl_hv_clear
 0001:0004B448       Perl_hv_undef
 0001:0004B4F8       Perl_hv_iterinit
 0001:0004B544       Perl_hv_iternext
 0001:0004B554       Perl_hv_iternext_flags
 0001:0004B784       Perl_hv_iterkey
 0001:0004B7E8       Perl_hv_iterkeysv
 0001:0004B898       Perl_hv_iterval
 0001:0004B8F0       Perl_hv_iternextsv
 0001:0004B930       Perl_hv_magic
 0001:0004B94C       Perl_unsharepvn
 0001:0004B964       Perl_unshare_hek
 0001:0004BBC0       Perl_share_hek
 0001:0004BD30       Perl_av_reify
 0001:0004BDBC       Perl_av_extend
 0001:0004C1FC       Perl_av_fetch
 0001:0004C400       Perl_av_store
 0001:0004C6A0       Perl_newAV
 0001:0004C6E0       Perl_av_make
 0001:0004C76C       Perl_av_fake
 0001:0004C7EC       Perl_av_clear
 0001:0004C874       Perl_av_undef
 0001:0004C91C       Perl_av_push
 0001:0004CB44       Perl_av_pop
 0001:0004CDC4       Perl_av_unshift
 0001:0004D0F0       Perl_av_shift
 0001:0004D374       Perl_av_len
 0001:0004D3B0       Perl_av_fill
 0001:0004D670       Perl_av_delete
 0001:0004D8A4       Perl_av_exists
 0001:0004DC34       Perl_avhv_keys
 0001:0004DCEC       Perl_avhv_store_ent
 0001:0004DD14       Perl_avhv_fetch_ent
 0001:0004DD3C       Perl_avhv_delete_ent
 0001:0004DD90       Perl_avhv_exists_ent
 0001:0004DDE0       Perl_avhv_iternext
 0001:0004DDF4       Perl_avhv_iterval
 0001:0004DE28       Perl_runops_standard
 0001:0004DE58       Perl_pp_const
 0001:0004DE98       Perl_pp_nextstate
 0001:0004DEEC       Perl_pp_gvsv
 0001:0004DF4C       Perl_pp_null
 0001:0004DF54       Perl_pp_setstate
 0001:0004DF64       Perl_pp_pushmark
 0001:0004DFA0       Perl_pp_stringify
 0001:0004DFE4       Perl_pp_gv
 0001:0004E024       Perl_pp_and
 0001:0004E0D4       Perl_pp_sassign
 0001:0004E154       Perl_pp_cond_expr
 0001:0004E21C       Perl_pp_unstack
 0001:0004E288       Perl_pp_concat
 0001:0004E524       Perl_pp_padsv
 0001:0004E5CC       Perl_pp_readline
 0001:0004E6E0       Perl_pp_eq
 0001:0004E87C       Perl_pp_preinc
 0001:0004E8E4       Perl_pp_or
 0001:0004E998       Perl_pp_add
 0001:0004EC48       Perl_pp_aelemfast
 0001:0004ECCC       Perl_pp_join
 0001:0004ED24       Perl_pp_pushre
 0001:0004ED64       Perl_pp_print
 0001:0004F1D0       Perl_pp_rv2av
 0001:0004F6C4       Perl_pp_rv2hv
 0001:0004FD00       Perl_pp_aassign
 0001:000501E4       Perl_pp_qr
 0001:0005028C       Perl_pp_match
 0001:00050B90       Perl_do_readline
 0001:000514CC       Perl_pp_enter
 0001:00051608       Perl_pp_helem
 0001:00051974       Perl_pp_leave
 0001:00051B64       Perl_pp_iter
 0001:00051E8C       Perl_pp_subst
 0001:00052A90       Perl_pp_grepwhile
 0001:00052C98       Perl_pp_leavesub
 0001:00052FF8       Perl_pp_leavesublv
 0001:0005395C       Perl_pp_entersub
 0001:00054114       Perl_sub_crush_depth
 0001:00054180       Perl_pp_aelem
 0001:000543AC       Perl_vivify_ref
 0001:00054480       Perl_pp_method
 0001:000544C8       Perl_pp_method_named
 0001:00054A28       Perl_sv_add_arena
 0001:00054B6C       Perl_sv_report_used
 0001:00054C30       Perl_sv_clean_objs
 0001:00054C6C       Perl_sv_clean_all
 0001:00054C88       Perl_sv_free_arenas
 0001:00054F70       Perl_report_uninit
 0001:0005559C       Perl_sv_upgrade
 0001:00055CAC       Perl_sv_backoff
 0001:00055CEC       Perl_sv_grow
 0001:00055DFC       Perl_sv_setiv
 0001:00055F04       Perl_sv_setiv_mg
 0001:00055F28       Perl_sv_setuv
 0001:00055F58       Perl_sv_setuv_mg
 0001:00055FBC       Perl_sv_setnv
 0001:000560C0       Perl_sv_setnv_mg
 0001:000562B0       Perl_looks_like_number
 0001:00056318       Perl_sv_2iv
 0001:000568EC       Perl_sv_2uv
 0001:00056EB4       Perl_sv_2nv
 0001:00057428       Perl_sv_2pv_nolen
 0001:000574C4       Perl_sv_2pv
 0001:00057540       Perl_sv_2pv_flags
 0001:00057DA8       Perl_sv_copypv
 0001:00057E04       Perl_sv_2pvbyte_nolen
 0001:00057E1C       Perl_sv_2pvbyte
 0001:00057E58       Perl_sv_2pvutf8_nolen
 0001:00057E70       Perl_sv_2pvutf8
 0001:00057EAC       Perl_sv_2bool
 0001:00058020       Perl_sv_utf8_upgrade
 0001:00058030       Perl_sv_utf8_upgrade_flags
 0001:00058150       Perl_sv_utf8_downgrade
 0001:00058234       Perl_sv_utf8_encode
 0001:0005824C       Perl_sv_utf8_decode
 0001:000582B0       Perl_sv_setsv
 0001:00058380       Perl_sv_setsv_flags
 0001:0005906C       Perl_sv_setsv_mg
 0001:000590C0       Perl_sv_setpvn
 0001:00059184       Perl_sv_setpvn_mg
 0001:000591AC       Perl_sv_setpv
 0001:0005926C       Perl_sv_setpv_mg
 0001:00059290       Perl_sv_usepvn
 0001:00059368       Perl_sv_usepvn_mg
 0001:00059390       Perl_sv_force_normal_flags
 0001:00059454       Perl_sv_force_normal
 0001:00059464       Perl_sv_chop
 0001:00059528       Perl_sv_catpvn
 0001:00059540       Perl_sv_catpvn_flags
 0001:00059600       Perl_sv_catpvn_mg
 0001:0005962C       Perl_sv_catsv
 0001:00059640       Perl_sv_catsv_flags
 0001:00059740       Perl_sv_catsv_mg
 0001:00059768       Perl_sv_catpv
 0001:00059840       Perl_sv_catpv_mg
 0001:00059864       Perl_newSV
 0001:000598C8       Perl_sv_magicext
 0001:00059A2C       Perl_sv_magic
 0001:00059E40       Perl_sv_unmagic
 0001:00059F3C       Perl_sv_rvweaken
 0001:0005A114       Perl_sv_insert
 0001:0005A3B8       Perl_sv_replace
 0001:0005A4F0       Perl_sv_clear
 0001:0005AB0C       Perl_sv_newref
 0001:0005AB48       Perl_sv_free
 0001:0005AC60       Perl_sv_len
 0001:0005ACB4       Perl_sv_len_utf8
 0001:0005AFD8       Perl_sv_pos_u2b
 0001:0005B1FC       Perl_sv_pos_b2u
 0001:0005B3F0       Perl_sv_eq
 0001:0005B624       Perl_sv_cmp
 0001:0005B874       Perl_sv_cmp_locale
 0001:0005B940       Perl_sv_collxfrm
 0001:0005BA60       Perl_sv_gets
 0001:0005C300       Perl_sv_inc
 0001:0005C604       Perl_sv_dec
 0001:0005C814       Perl_sv_mortalcopy
 0001:0005C890       Perl_sv_newmortal
 0001:0005C8F8       Perl_sv_2mortal
 0001:0005C95C       Perl_newSVpv
 0001:0005C9CC       Perl_newSVpvn
 0001:0005CA18       Perl_newSVpvn_share
 0001:0005CB3C       Perl_newSVpvf
 0001:0005CB64       Perl_vnewSVpvf
 0001:0005CBE0       Perl_newSVnv
 0001:0005CC2C       Perl_newSViv
 0001:0005CC74       Perl_newSVuv
 0001:0005CCBC       Perl_newRV_noinc
 0001:0005CD14       Perl_newRV
 0001:0005CD54       Perl_newSVsv
 0001:0005CE1C       Perl_sv_reset
 0001:0005D050       Perl_sv_2io
 0001:0005D1A0       Perl_sv_2cv
 0001:0005D3B8       Perl_sv_true
 0001:0005D444       Perl_sv_iv
 0001:0005D468       Perl_sv_uv
 0001:0005D48C       Perl_sv_nv
 0001:0005D4A8       Perl_sv_pv
 0001:0005D4D0       Perl_sv_pvn
 0001:0005D4F8       Perl_sv_pvn_nomg
 0001:0005D524       Perl_sv_pvn_force
 0001:0005D558       Perl_sv_pvn_force_flags
 0001:0005D680       Perl_sv_pvbyte
 0001:0005D6AC       Perl_sv_pvbyten
 0001:0005D6CC       Perl_sv_pvbyten_force
 0001:0005D6F0       Perl_sv_pvutf8
 0001:0005D71C       Perl_sv_pvutf8n
 0001:0005D73C       Perl_sv_pvutf8n_force
 0001:0005D760       Perl_sv_reftype
 0001:0005D844       Perl_sv_isobject
 0001:0005D884       Perl_sv_isa
 0001:0005D8E0       Perl_newSVrv
 0001:0005DA04       Perl_sv_setref_pv
 0001:0005DA50       Perl_sv_setref_iv
 0001:0005DA74       Perl_sv_setref_uv
 0001:0005DA98       Perl_sv_setref_nv
 0001:0005DAC0       Perl_sv_setref_pvn
 0001:0005DB08       Perl_sv_bless
 0001:0005DC64       Perl_sv_unref_flags
 0001:0005DCC4       Perl_sv_unref
 0001:0005DCD4       Perl_sv_taint
 0001:0005DCEC       Perl_sv_untaint
 0001:0005DD14       Perl_sv_tainted
 0001:0005DD54       Perl_sv_setpviv
 0001:0005DD8C       Perl_sv_setpviv_mg
 0001:0005DDD4       Perl_sv_setpvf
 0001:0005DE00       Perl_sv_vsetpvf
 0001:0005DE40       Perl_sv_setpvf_mg
 0001:0005DE6C       Perl_sv_vsetpvf_mg
 0001:0005DEBC       Perl_sv_catpvf
 0001:0005DEE8       Perl_sv_vcatpvf
 0001:0005DF28       Perl_sv_catpvf_mg
 0001:0005DF54       Perl_sv_vcatpvf_mg
 0001:0005DFA4       Perl_sv_vsetpvfn
 0001:0005E0C0       Perl_sv_vcatpvfn
 0001:00060348       Perl_sv_recode_to_utf8
 0001:00060514       Perl_sv_cat_decode
 0001:00060790       Perl_pp_stub
 0001:000607EC       Perl_pp_scalar
 0001:00060820       Perl_pp_padav
 0001:000609FC       Perl_pp_padhv
 0001:00060B48       Perl_pp_padany
 0001:00060BAC       Perl_pp_rv2gv
 0001:00060F04       Perl_pp_rv2sv
 0001:00061174       Perl_pp_av2arylen
 0001:000611C4       Perl_pp_pos
 0001:00061308       Perl_pp_rv2cv
 0001:000613FC       Perl_pp_prototype
 0001:000615DC       Perl_pp_anoncode
 0001:00061640       Perl_pp_srefgen
 0001:00061664       Perl_pp_refgen
 0001:000617B0       Perl_pp_ref
 0001:000618AC       Perl_pp_bless
 0001:000619FC       Perl_pp_gelem
 0001:00061D04       Perl_pp_study
 0001:00061EC0       Perl_pp_trans
 0001:00061F44       Perl_pp_schop
 0001:00061F88       Perl_pp_chop
 0001:00062008       Perl_pp_schomp
 0001:00062058       Perl_pp_chomp
 0001:000620D8       Perl_pp_defined
 0001:000621F8       Perl_pp_undef
 0001:0006246C       Perl_pp_predec
 0001:000624D4       Perl_pp_postinc
 0001:00062578       Perl_pp_postdec
 0001:00062608       Perl_pp_pow
 0001:00062A28       Perl_pp_multiply
 0001:00062CB0       Perl_pp_divide
 0001:00062E38       Perl_pp_modulo
 0001:0006326C       Perl_pp_repeat
 0001:00063558       Perl_pp_subtract
 0001:00063834       Perl_pp_left_shift
 0001:00063970       Perl_pp_right_shift
 0001:00063AAC       Perl_pp_lt
 0001:00063C74       Perl_pp_gt
 0001:00063E38       Perl_pp_le
 0001:00064000       Perl_pp_ge
 0001:000641C4       Perl_pp_ne
 0001:00064368       Perl_pp_ncmp
 0001:000645C4       Perl_pp_slt
 0001:00064650       Perl_pp_sgt
 0001:000646DC       Perl_pp_sle
 0001:00064768       Perl_pp_sge
 0001:000647F4       Perl_pp_seq
 0001:00064864       Perl_pp_sne
 0001:000648D4       Perl_pp_scmp
 0001:0006499C       Perl_pp_bit_and
 0001:00064B24       Perl_pp_bit_xor
 0001:00064CCC       Perl_pp_bit_or
 0001:00064E74       Perl_pp_negate
 0001:00065104       Perl_pp_not
 0001:000651EC       Perl_pp_complement
 0001:000655CC       Perl_pp_i_multiply
 0001:000656C8       Perl_pp_i_divide
 0001:00065944       Perl_pp_i_modulo
 0001:00065A94       Perl_pp_i_add
 0001:00065BB0       Perl_pp_i_subtract
 0001:00065CCC       Perl_pp_i_lt
 0001:00065D70       Perl_pp_i_gt
 0001:00065E14       Perl_pp_i_le
 0001:00065EB8       Perl_pp_i_ge
 0001:00065F5C       Perl_pp_i_eq
 0001:00066000       Perl_pp_i_ne
 0001:000660A4       Perl_pp_i_ncmp
 0001:00066194       Perl_pp_i_negate
 0001:0006623C       Perl_pp_atan2
 0001:00066334       Perl_pp_sin
 0001:0006641C       Perl_pp_cos
 0001:0006650C       Perl_pp_rand
 0001:00066610       Perl_pp_srand
 0001:00066690       Perl_pp_exp
 0001:0006678C       Perl_pp_log
 0001:000668D8       Perl_pp_sqrt
 0001:00066A30       Perl_pp_int
 0001:00066BA4       Perl_pp_abs
 0001:00066CC0       Perl_pp_hex
 0001:00066DC8       Perl_pp_oct
 0001:00066F50       Perl_pp_length
 0001:00067000       Perl_pp_substr
 0001:000675B4       Perl_pp_vec
 0001:000677A4       Perl_pp_index
 0001:00067918       Perl_pp_rindex
 0001:00067AD4       Perl_pp_sprintf
 0001:00067B88       Perl_pp_ord
 0001:00067C94       Perl_pp_chr
 0001:00067F10       Perl_pp_crypt
 0001:00067FEC       Perl_pp_ucfirst
 0001:00068224       Perl_pp_lcfirst
 0001:00068464       Perl_pp_uc
 0001:000686F4       Perl_pp_lc
 0001:00068984       Perl_pp_quotemeta
 0001:00068B3C       Perl_pp_aslice
 0001:00068D18       Perl_pp_each
 0001:00068E24       Perl_pp_values
 0001:00068E2C       Perl_pp_keys
 0001:00068E48       Perl_pp_delete
 0001:00069078       Perl_pp_exists
 0001:000691B8       Perl_pp_hslice
 0001:00069484       Perl_pp_list
 0001:000694E8       Perl_pp_lslice
 0001:0006965C       Perl_pp_anonlist
 0001:00069700       Perl_pp_anonhash
 0001:00069854       Perl_pp_splice
 0001:0006A058       Perl_pp_push
 0001:0006A1C8       Perl_pp_pop
 0001:0006A208       Perl_pp_shift
 0001:0006A27C       Perl_pp_unshift
 0001:0006A418       Perl_pp_reverse
 0001:0006A5F8       Perl_pp_split
 0001:0006B3EC       Perl_pp_lock
 0001:0006B460       Perl_pp_threadsv
 0001:0006B470       Perl_stack_grow
 0001:0006B4A8       Perl_new_stackinfo
 0001:0006B540       Perl_cxinc
 0001:0006B5AC       Perl_push_return
 0001:0006B5FC       Perl_pop_return
 0001:0006B61C       Perl_push_scope
 0001:0006B670       Perl_pop_scope
 0001:0006B698       Perl_markstack_grow
 0001:0006B6E0       Perl_savestack_grow
 0001:0006B714       Perl_savestack_grow_cnt
 0001:0006B73C       Perl_tmps_grow
 0001:0006B780       Perl_free_tmps
 0001:0006B8B8       Perl_save_scalar
 0001:0006B938       Perl_save_svref
 0001:0006B9A4       Perl_save_generic_svref
 0001:0006BA04       Perl_save_generic_pvref
 0001:0006BA58       Perl_save_shared_pvref
 0001:0006BAAC       Perl_save_gp
 0001:0006BC9C       Perl_save_ary
 0001:0006BD98       Perl_save_hash
 0001:0006BE90       Perl_save_item
 0001:0006BEF8       Perl_save_int
 0001:0006BF4C       Perl_save_long
 0001:0006BFA0       Perl_save_bool
 0001:0006BFFC       Perl_save_I32
 0001:0006C050       Perl_save_I16
 0001:0006C0A4       Perl_save_I8
 0001:0006C0F8       Perl_save_iv
 0001:0006C14C       Perl_save_pptr
 0001:0006C1A0       Perl_save_vptr
 0001:0006C1F4       Perl_save_sptr
 0001:0006C248       Perl_save_padsv
 0001:0006C2E8       Perl_save_threadsv
 0001:0006C2F4       Perl_save_nogv
 0001:0006C338       Perl_save_hptr
 0001:0006C38C       Perl_save_aptr
 0001:0006C3E0       Perl_save_freesv
 0001:0006C424       Perl_save_mortalizesv
 0001:0006C468       Perl_save_freeop
 0001:0006C4AC       Perl_save_freepv
 0001:0006C4F0       Perl_save_clearsv
 0001:0006C53C       Perl_save_delete
 0001:0006C5B4       Perl_save_list
 0001:0006C63C       Perl_save_destructor
 0001:0006C690       Perl_save_destructor_x
 0001:0006C6E4       Perl_save_aelem
 0001:0006C794       Perl_save_helem
 0001:0006C854       Perl_save_op
 0001:0006C898       Perl_save_alloc
 0001:0006C968       Perl_leave_scope
 0001:0006D46C       Perl_cx_dump
 0001:0006D470       Perl_pp_wantarray
 0001:0006D4F4       Perl_pp_regcmaybe
 0001:0006D4FC       Perl_pp_regcreset
 0001:0006D514       Perl_pp_regcomp
 0001:0006D768       Perl_pp_substcont
 0001:0006DC40       Perl_rxres_save
 0001:0006DCEC       Perl_rxres_restore
 0001:0006DD60       Perl_rxres_free
 0001:0006DDD0       Perl_pp_formline
 0001:0006ED70       Perl_pp_grepstart
 0001:0006EE9C       Perl_pp_mapstart
 0001:0006EEAC       Perl_pp_mapwhile
 0001:0006F100       Perl_pp_range
 0001:0006F1E4       Perl_pp_flip
 0001:0006F46C       Perl_pp_flop
 0001:0006FA58       Perl_dowantarray
 0001:0006FA84       Perl_block_gimme
 0001:0006FAF0       Perl_is_lvalue_sub
 0001:0006FCB4       Perl_dounwind
 0001:0006FE7C       Perl_qerror
 0001:0006FF18       Perl_die_where
 0001:0007037C       Perl_pp_xor
 0001:000704DC       Perl_pp_andassign
 0001:00070588       Perl_pp_orassign
 0001:0007066C       Perl_pp_caller
 0001:00070BF0       Perl_pp_reset
 0001:00070C68       Perl_pp_lineseq
 0001:00070C8C       Perl_pp_dbstate
 0001:00070F60       Perl_pp_scope
 0001:00070F78       Perl_pp_enteriter
 0001:000712AC       Perl_pp_enterloop
 0001:000713E8       Perl_pp_leaveloop
 0001:00071578       Perl_pp_return
 0001:00071AD4       Perl_pp_last
 0001:00071E64       Perl_pp_next
 0001:00071F94       Perl_pp_redo
 0001:000721A4       Perl_pp_dump
 0001:000722B4       Perl_pp_goto
 0001:00072EA4       Perl_pp_exit
 0001:000730B4       Perl_sv_compile_2op
 0001:000734D0       Perl_find_runcv
 0001:00073D90       Perl_pp_require
 0001:00074D60       Perl_pp_dofile
 0001:00074D94       Perl_pp_entereval
 0001:00075234       Perl_pp_leaveeval
 0001:000754E4       Perl_pp_entertry
 0001:0007564C       Perl_pp_leavetry
 0001:00075EB4       Perl_pp_backtick
 0001:0007617C       Perl_pp_glob
 0001:00076284       Perl_pp_rcatline
 0001:000762C0       Perl_pp_warn
 0001:00076418       Perl_pp_die
 0001:00076708       Perl_pp_open
 0001:0007690C       Perl_pp_close
 0001:00076A5C       Perl_pp_pipe_op
 0001:00076C60       Perl_pp_fileno
 0001:00076E00       Perl_pp_umask
 0001:00076EC8       Perl_pp_binmode
 0001:0007726C       Perl_pp_tie
 0001:0007774C       Perl_pp_untie
 0001:0007799C       Perl_pp_tied
 0001:00077A64       Perl_pp_dbmopen
 0001:00077C90       Perl_pp_dbmclose
 0001:00077CA0       Perl_pp_sselect
 0001:00078020       Perl_setdefout
 0001:00078048       Perl_pp_select
 0001:00078194       Perl_pp_getc
 0001:000784C0       Perl_pp_read
 0001:00078680       Perl_pp_enterwrite
 0001:000787F8       Perl_pp_leavewrite
 0001:00078CD4       Perl_pp_prtf
 0001:00079050       Perl_pp_sysopen
 0001:00079164       Perl_pp_sysread
 0001:00079944       Perl_pp_syswrite
 0001:000799B0       Perl_pp_send
 0001:00079E68       Perl_pp_recv
 0001:00079E74       Perl_pp_eof
 0001:0007A0AC       Perl_pp_tell
 0001:0007A218       Perl_pp_seek
 0001:0007A224       Perl_pp_sysseek
 0001:0007A468       Perl_pp_truncate
 0001:0007A628       Perl_pp_fcntl
 0001:0007A674       Perl_pp_ioctl
 0001:0007A978       Perl_pp_flock
 0001:0007AACC       Perl_pp_socket
 0001:0007AD20       Perl_pp_sockpair
 0001:0007B0E0       Perl_pp_bind
 0001:0007B248       Perl_pp_connect
 0001:0007B390       Perl_pp_listen
 0001:0007B4A8       Perl_pp_accept
 0001:0007B700       Perl_pp_shutdown
 0001:0007B838       Perl_pp_gsockopt
 0001:0007B840       Perl_pp_ssockopt
 0001:0007BABC       Perl_pp_getsockname
 0001:0007BAC4       Perl_pp_getpeername
 0001:0007BC48       Perl_pp_lstat
 0001:0007BC98       Perl_pp_stat
 0001:0007C1EC       Perl_pp_ftrread
 0001:0007C29C       Perl_pp_ftrwrite
 0001:0007C34C       Perl_pp_ftrexec
 0001:0007C3F8       Perl_pp_fteread
 0001:0007C450       Perl_pp_ftewrite
 0001:0007C4A8       Perl_pp_fteexec
 0001:0007C4FC       Perl_pp_ftis
 0001:0007C53C       Perl_pp_fteowned
 0001:0007C544       Perl_pp_ftrowned
 0001:0007C5B8       Perl_pp_ftzero
 0001:0007C60C       Perl_pp_ftsize
 0001:0007C678       Perl_pp_ftmtime
 0001:0007C70C       Perl_pp_ftatime
 0001:0007C7A0       Perl_pp_ftctime
 0001:0007C82C       Perl_pp_ftsock
 0001:0007C888       Perl_pp_ftchr
 0001:0007C8E4       Perl_pp_ftblk
 0001:0007C940       Perl_pp_ftfile
 0001:0007C99C       Perl_pp_ftdir
 0001:0007C9F8       Perl_pp_ftpipe
 0001:0007CA54       Perl_pp_ftlink
 0001:0007CA94       Perl_pp_ftsuid
 0001:0007CAE8       Perl_pp_ftsgid
 0001:0007CB3C       Perl_pp_ftsvtx
 0001:0007CB58       Perl_pp_fttty
 0001:0007CC90       Perl_pp_fttext
 0001:0007D214       Perl_pp_ftbinary
 0001:0007D254       Perl_pp_chdir
 0001:0007D40C       Perl_pp_chown
 0001:0007D428       Perl_pp_chroot
 0001:0007D43C       Perl_pp_unlink
 0001:0007D4B0       Perl_pp_chmod
 0001:0007D524       Perl_pp_utime
 0001:0007D5A0       Perl_pp_rename
 0001:0007D674       Perl_pp_link
 0001:0007D690       Perl_pp_symlink
 0001:0007D6A4       Perl_pp_readlink
 0001:0007D6E0       Perl_pp_mkdir
 0001:0007D80C       Perl_pp_rmdir
 0001:0007D8FC       Perl_pp_open_dir
 0001:0007D9D8       Perl_pp_readdir
 0001:0007DB1C       Perl_pp_telldir
 0001:0007DBCC       Perl_pp_seekdir
 0001:0007DC84       Perl_pp_rewinddir
 0001:0007DD1C       Perl_pp_closedir
 0001:0007DDC4       Perl_pp_fork
 0001:0007DE9C       Perl_pp_wait
 0001:0007DF88       Perl_pp_waitpid
 0001:0007E0A4       Perl_pp_system
 0001:0007E23C       Perl_pp_exec
 0001:0007E388       Perl_pp_kill
 0001:0007E3FC       Perl_pp_getppid
 0001:0007E488       Perl_pp_getpgrp
 0001:0007E53C       Perl_pp_setpgrp
 0001:0007E5F8       Perl_pp_getpriority
 0001:0007E68C       Perl_pp_setpriority
 0001:0007E760       Perl_pp_time
 0001:0007E7DC       Perl_pp_tms
 0001:0007E8C8       Perl_pp_localtime
 0001:0007E938       Perl_pp_gmtime
 0001:0007EB90       Perl_pp_alarm
 0001:0007EC2C       Perl_pp_sleep
 0001:0007ECF4       Perl_pp_shmget
 0001:0007ECFC       Perl_pp_shmctl
 0001:0007ED04       Perl_pp_shmread
 0001:0007ED0C       Perl_pp_shmwrite
 0001:0007ED14       Perl_pp_msgget
 0001:0007ED1C       Perl_pp_msgctl
 0001:0007ED24       Perl_pp_msgsnd
 0001:0007ED2C       Perl_pp_msgrcv
 0001:0007ED64       Perl_pp_semget
 0001:0007ED74       Perl_pp_semctl
 0001:0007ED7C       Perl_pp_semop
 0001:0007ED84       Perl_pp_ghbyname
 0001:0007ED8C       Perl_pp_ghbyaddr
 0001:0007ED94       Perl_pp_ghostent
 0001:0007F024       Perl_pp_gnbyname
 0001:0007F02C       Perl_pp_gnbyaddr
 0001:0007F034       Perl_pp_gnetent
 0001:0007F244       Perl_pp_gpbyname
 0001:0007F24C       Perl_pp_gpbynumber
 0001:0007F254       Perl_pp_gprotoent
 0001:0007F404       Perl_pp_gsbyname
 0001:0007F40C       Perl_pp_gsbyport
 0001:0007F414       Perl_pp_gservent
 0001:0007F6A4       Perl_pp_shostent
 0001:0007F6E4       Perl_pp_snetent
 0001:0007F724       Perl_pp_sprotoent
 0001:0007F764       Perl_pp_sservent
 0001:0007F7A4       Perl_pp_ehostent
 0001:0007F7E4       Perl_pp_enetent
 0001:0007F824       Perl_pp_eprotoent
 0001:0007F864       Perl_pp_eservent
 0001:0007F8A4       Perl_pp_gpwnam
 0001:0007F8AC       Perl_pp_gpwuid
 0001:0007F8B4       Perl_pp_gpwent
 0001:0007FB24       Perl_pp_spwent
 0001:0007FB48       Perl_pp_epwent
 0001:0007FB6C       Perl_pp_ggrnam
 0001:0007FB74       Perl_pp_ggrgid
 0001:0007FB7C       Perl_pp_ggrent
 0001:0007FD34       Perl_pp_sgrent
 0001:0007FD58       Perl_pp_egrent
 0001:0007FD7C       Perl_pp_getlogin
 0001:0007FE1C       Perl_pp_syscall
 0001:00080D34       Perl_do_trans
 0001:00080E68       Perl_do_join
 0001:00080FF4       Perl_do_sprintf
 0001:000810C8       Perl_do_vecget
 0001:0008128C       Perl_do_vecset
 0001:000814EC       Perl_do_chop
 0001:0008171C       Perl_do_chomp
 0001:000819E0       Perl_do_vop
 0001:000821C4       Perl_do_kv
 0001:0008254C       Perl_do_open
 0001:00082578       Perl_do_open9
 0001:0008274C       Perl_do_openn
 0001:00083ECC       Perl_nextargv
 0001:000844B0       Perl_do_pipe
 0001:00084628       Perl_do_close
 0001:00084728       Perl_io_close
 0001:000847F4       Perl_do_eof
 0001:00084984       Perl_do_tell
 0001:00084A38       Perl_do_seek
 0001:00084AF4       Perl_do_sysseek
 0001:00084BC0       Perl_mode_from_discipline
 0001:00084D10       Perl_do_binmode
 0001:00084D58       Perl_do_print
 0001:00084FC0       Perl_my_stat
 0001:00085278       Perl_my_lstat
 0001:00085510       Perl_do_aexec5
 0001:000856F8       Perl_do_execfree
 0001:00085768       Perl_apply
 0001:00085D14       Perl_cando
 0001:00085D2C       Perl_ingroup
 0001:00085DAC       Perl_start_glob
 0001:00086134       Perl_pregexec
 0001:0008618C       Perl_re_intuit_start
 0001:00088D28       Perl_regexec_flags
 0001:0008E380       Perl_regclass_swash
 0001:0008EF50       Perl_uvuni_to_utf8_flags
 0001:0008F0BC       Perl_uvuni_to_utf8
 0001:0008F0D0       Perl_is_utf8_char
 0001:0008F1C8       Perl_is_utf8_string
 0001:0008F238       Perl_is_utf8_string_loc
 0001:0008F4A0       Perl_utf8n_to_uvuni
 0001:0008FA3C       Perl_utf8_to_uvchr
 0001:0008FAA4       Perl_utf8_to_uvuni
 0001:0008FB0C       Perl_utf8_length
 0001:0008FC58       Perl_utf8_distance
 0001:0008FD98       Perl_utf8_hop
 0001:0008FDE0       Perl_utf8_to_bytes
 0001:0008FE6C       Perl_bytes_from_utf8
 0001:0008FF14       Perl_bytes_to_utf8
 0001:0008FFD0       Perl_utf16_to_utf8
 0001:000900D4       Perl_utf16_to_utf8_reversed
 0001:0009011C       Perl_is_uni_alnum
 0001:00090140       Perl_is_uni_alnumc
 0001:00090164       Perl_is_uni_idfirst
 0001:00090188       Perl_is_uni_alpha
 0001:000901AC       Perl_is_uni_ascii
 0001:000901D0       Perl_is_uni_space
 0001:000901F4       Perl_is_uni_digit
 0001:00090218       Perl_is_uni_upper
 0001:0009023C       Perl_is_uni_lower
 0001:00090260       Perl_is_uni_cntrl
 0001:00090284       Perl_is_uni_graph
 0001:000902A8       Perl_is_uni_print
 0001:000902CC       Perl_is_uni_punct
 0001:000902F0       Perl_is_uni_xdigit
 0001:00090314       Perl_to_uni_upper
 0001:00090338       Perl_to_uni_title
 0001:0009035C       Perl_to_uni_lower
 0001:00090380       Perl_to_uni_fold
 0001:000903A4       Perl_is_uni_alnum_lc
 0001:000903B4       Perl_is_uni_alnumc_lc
 0001:000903C4       Perl_is_uni_idfirst_lc
 0001:000903D4       Perl_is_uni_alpha_lc
 0001:000903E4       Perl_is_uni_ascii_lc
 0001:000903F4       Perl_is_uni_space_lc
 0001:00090404       Perl_is_uni_digit_lc
 0001:00090414       Perl_is_uni_upper_lc
 0001:00090424       Perl_is_uni_lower_lc
 0001:00090434       Perl_is_uni_cntrl_lc
 0001:00090444       Perl_is_uni_graph_lc
 0001:00090454       Perl_is_uni_print_lc
 0001:00090464       Perl_is_uni_punct_lc
 0001:00090474       Perl_is_uni_xdigit_lc
 0001:00090484       Perl_to_uni_upper_lc
 0001:000904A0       Perl_to_uni_title_lc
 0001:000904BC       Perl_to_uni_lower_lc
 0001:000904E4       Perl_is_utf8_alnum
 0001:00090544       Perl_is_utf8_alnumc
 0001:000905A4       Perl_is_utf8_idfirst
 0001:00090614       Perl_is_utf8_idcont
 0001:00090684       Perl_is_utf8_alpha
 0001:000906E4       Perl_is_utf8_ascii
 0001:00090748       Perl_is_utf8_space
 0001:000907A8       Perl_is_utf8_digit
 0001:0009080C       Perl_is_utf8_upper
 0001:00090870       Perl_is_utf8_lower
 0001:000908D0       Perl_is_utf8_cntrl
 0001:00090930       Perl_is_utf8_graph
 0001:00090990       Perl_is_utf8_print
 0001:000909F0       Perl_is_utf8_punct
 0001:00090A50       Perl_is_utf8_xdigit
 0001:00090AAC       Perl_is_utf8_mark
 0001:00090B08       Perl_to_utf8_case
 0001:00090C90       Perl_to_utf8_upper
 0001:00090CD0       Perl_to_utf8_title
 0001:00090D10       Perl_to_utf8_lower
 0001:00090D4C       Perl_to_utf8_fold
 0001:00090DD8       Perl_swash_init
 0001:00091374       Perl_swash_fetch
 0001:0009195C       Perl_uvchr_to_utf8
 0001:00091970       Perl_uvchr_to_utf8_flags
 0001:00091988       Perl_utf8n_to_uvchr
 0001:000919C4       Perl_pv_uni_display
 0001:00091B34       Perl_sv_uni_display
 0001:00091B54       Perl_ibcmp_utf8
 0001:00091F10       Perl_taint_proper
 0001:00092050       Perl_taint_env
 0001:000922D8       Perl_deb
 0001:000922DC       Perl_vdeb
 0001:000922E0       Perl_debstackptrs
 0001:000922F0       Perl_debstack
 0001:0009235C       Perl_deb_stack_all
 0001:000926D0       Perl_sv_derived_from
 0001:0009290C       Perl_boot_core_UNIVERSAL
 0001:00092AE0       XS_UNIVERSAL_isa
 0001:00092C14       XS_UNIVERSAL_can
 0001:00092E88       XS_UNIVERSAL_VERSION
 0001:000931A4       XS_utf8_is_utf8
 0001:00093220       XS_utf8_valid
 0001:000932E4       XS_utf8_encode
 0001:00093354       XS_utf8_decode
 0001:000933F8       XS_utf8_upgrade
 0001:000934C8       XS_utf8_downgrade
 0001:000935A4       XS_utf8_native_to_unicode
 0001:00093644       XS_utf8_unicode_to_native
 0001:000936C0       XS_Internals_SvREADONLY
 0001:000937F0       XS_Internals_SvREFCNT
 0001:000938AC       XS_Internals_hv_clear_placehold
 0001:00093984       XS_Regexp_DESTROY
 0001:000939F8       XS_PerlIO_get_layers
 0001:0009412C       XS_Internals_hash_seed
 0001:00094174       XS_Internals_rehash_seed
 0001:000941D8       XS_Internals_HvREHASH
 0001:00094274       Perl_boot_core_xsutils
 0001:000945F4       XS_attributes_bootstrap
 0001:00094710       XS_attributes__modify_attrs
 0001:000947C8       XS_attributes__fetch_attrs
 0001:000949A8       XS_attributes__guess_stash
 0001:00094B08       XS_attributes_reftype
 0001:00094BCC       XS_attributes__warn_reserved
 0001:00094CB4       PL_utf8skip
 0001:00094DB4       PL_warn_uninit
 0001:00094DD3       PL_warn_nosemi
 0001:00094DF1       PL_warn_reserved
 0001:00094E2A       PL_warn_nl
 0001:00094E59       PL_no_wrongref
 0001:00094E74       PL_no_symref
 0001:00094EB4       PL_no_usym
 0001:00094EE1       PL_no_aelem
 0001:00094F23       PL_no_helem
 0001:00094F66       PL_no_modify
 0001:00094F92       PL_no_mem
 0001:00094FA2       PL_no_security
 0001:00094FBE       PL_no_sock_func
 0001:00094FE6       PL_no_dir_func
 0001:00095011       PL_no_func
 0001:00095032       PL_no_myglob
 0001:00095059       PL_no_localize_ref
 0001:0009507C       PL_uuemap
 0001:00095155       PL_fold
 0001:00095255       PL_freq
 0001:00096990       Perl_fprintf_nocontext
 0001:000969A8       Perl_printf_nocontext
 0001:000969C4       perlsio_binmode
 0001:000969E8       PerlIO_intmode2str
 0001:00096AAC       PerlIO_debug
 0001:00096BE0       PerlIO_allocate
 0001:00096C58       PerlIO_fdupopen
 0001:00096CCC       PerlIO_cleantable
 0001:00096D1C       PerlIO_list_alloc
 0001:00096D40       PerlIO_list_free
 0001:00096D94       PerlIO_list_push
 0001:00096DFC       PerlIO_clone_list
 0001:00096E54       PerlIO_clone
 0001:00096E6C       PerlIO_destruct
 0001:00096EEC       PerlIO_pop
 0001:00096F30       PerlIO_get_layers
 0001:00097064       PerlIO_find_layer
 0001:000971C0       PerlIO_tab_sv
 0001:000971FC       XS_PerlIO__Layer__NoWarnings
 0001:00097284       XS_PerlIO__Layer__find
 0001:000973FC       PerlIO_define_layer
 0001:000974C8       PerlIO_parse_layers
 0001:00097798       PerlIO_default_buffer
 0001:000977D4       PerlIO_arg_fetch
 0001:00097818       PerlIO_layer_fetch
 0001:00097864       PerlIOPop_pushed
 0001:0009789C       PerlIO_default_layers
 0001:000979A4       Perl_boot_core_PerlIO
 0001:000979D0       PerlIO_default_layer
 0001:000979FC       PerlIO_stdstreams
 0001:00097A78       PerlIO_push
 0001:00097B64       PerlIOBase_binmode
 0001:00097BA8       PerlIORaw_pushed
 0001:00097C2C       PerlIO_apply_layera
 0001:00097C88       PerlIO_apply_layers
 0001:00097CFC       PerlIO_binmode
 0001:00097DB0       PerlIO__close
 0001:00097DF4       Perl_PerlIO_close
 0001:00097E1C       Perl_PerlIO_fileno
 0001:00097F60       PerlIO_resolve_layers
 0001:000980A8       PerlIO_openn
 0001:000982A8       Perl_PerlIO_read
 0001:000982FC       Perl_PerlIO_unread
 0001:00098350       Perl_PerlIO_write
 0001:000983A0       Perl_PerlIO_seek
 0001:000983F0       Perl_PerlIO_tell
 0001:00098448       Perl_PerlIO_flush
 0001:000984DC       PerlIOBase_flush_linebuf
 0001:0009852C       Perl_PerlIO_fill
 0001:00098574       PerlIO_isutf8
 0001:000985A0       Perl_PerlIO_eof
 0001:000985E4       Perl_PerlIO_error
 0001:00098628       Perl_PerlIO_clearerr
 0001:00098664       Perl_PerlIO_setlinebuf
 0001:000986A0       PerlIO_has_base
 0001:000986E4       PerlIO_fast_gets
 0001:0009872C       PerlIO_has_cntptr
 0001:00098778       PerlIO_canset_cnt
 0001:000987BC       Perl_PerlIO_get_base
 0001:00098800       Perl_PerlIO_get_bufsiz
 0001:00098848       Perl_PerlIO_get_ptr
 0001:0009888C       Perl_PerlIO_get_cnt
 0001:000988D4       Perl_PerlIO_set_cnt
 0001:00098918       Perl_PerlIO_set_ptrcnt
 0001:0009895C       PerlIOUtf8_pushed
 0001:00098998       PerlIORaw_open
 0001:000989F0       PerlIOBase_fileno
 0001:00098A10       PerlIO_modestr
 0001:00098A70       PerlIOBase_pushed
 0001:00098B40       PerlIOBase_popped
 0001:00098B48       PerlIOBase_unread
 0001:00098B88       PerlIOBase_read
 0001:00098C50       PerlIOBase_noop_ok
 0001:00098C54       PerlIOBase_noop_fail
 0001:00098C5C       PerlIOBase_close
 0001:00098CD8       PerlIOBase_eof
 0001:00098CF8       PerlIOBase_error
 0001:00098D18       PerlIOBase_clearerr
 0001:00098D3C       PerlIOBase_setlinebuf
 0001:00098D50       PerlIO_sv_dup
 0001:00098D8C       PerlIOBase_dup
 0001:00098E44       PerlIO_init
 0001:00098E58       PerlIOUnix_refcnt_inc
 0001:00098E90       PerlIOUnix_refcnt_dec
 0001:00098EE0       PerlIO_cleanup
 0001:00098F5C       PerlIOUnix_oflags
 0001:00099004       PerlIOUnix_fileno
 0001:00099030       PerlIOUnix_pushed
 0001:00099098       PerlIOUnix_seek
 0001:000990E4       PerlIOUnix_open
 0001:000991E0       PerlIOUnix_dup
 0001:00099244       PerlIOUnix_read
 0001:000992CC       PerlIOUnix_write
 0001:0009932C       PerlIOUnix_tell
 0001:00099344       PerlIOUnix_close
 0001:000993C4       PerlIOStdio_fileno
 0001:000993F4       PerlIOStdio_mode
 0001:00099420       PerlIOStdio_pushed
 0001:000994BC       PerlIO_importFILE
 0001:00099560       PerlIOStdio_open
 0001:00099744       PerlIOStdio_dup
 0001:000997E0       PerlIOStdio_close
 0001:000998FC       PerlIOStdio_read
 0001:00099980       PerlIOStdio_unread
 0001:00099A34       PerlIOStdio_write
 0001:00099A8C       PerlIOStdio_seek
 0001:00099AA8       PerlIOStdio_tell
 0001:00099ABC       PerlIOStdio_flush
 0001:00099AE0       PerlIOStdio_eof
 0001:00099AF4       PerlIOStdio_error
 0001:00099B08       PerlIOStdio_clearerr
 0001:00099B1C       PerlIOStdio_setlinebuf
 0001:00099B34       PerlIOStdio_get_base
 0001:00099B44       PerlIOStdio_get_bufsiz
 0001:00099B58       PerlIOStdio_get_ptr
 0001:00099B64       PerlIOStdio_get_cnt
 0001:00099B74       PerlIOStdio_set_ptrcnt
 0001:00099B90       PerlIOStdio_fill
 0001:00099C2C       PerlIO_exportFILE
 0001:00099CBC       PerlIO_findFILE
 0001:00099CF4       PerlIO_releaseFILE
 0001:00099D30       PerlIOBuf_pushed
 0001:00099D88       PerlIOBuf_open
 0001:00099F30       PerlIOBuf_flush
 0001:0009A054       PerlIOBuf_fill
 0001:0009A1AC       PerlIOBuf_read
 0001:0009A1E4       PerlIOBuf_unread
 0001:0009A2B8       PerlIOBuf_write
 0001:0009A3D4       PerlIOBuf_seek
 0001:0009A41C       PerlIOBuf_tell
 0001:0009A460       PerlIOBuf_popped
 0001:0009A4A8       PerlIOBuf_close
 0001:0009A4F0       PerlIOBuf_get_ptr
 0001:0009A50C       PerlIOBuf_get_cnt
 0001:0009A53C       PerlIOBuf_get_base
 0001:0009A594       PerlIOBuf_bufsiz
 0001:0009A5B8       PerlIOBuf_set_ptrcnt
 0001:0009A5E8       PerlIOBuf_dup
 0001:0009A608       PerlIOPending_fill
 0001:0009A618       PerlIOPending_close
 0001:0009A630       PerlIOPending_seek
 0001:0009A654       PerlIOPending_flush
 0001:0009A688       PerlIOPending_set_ptrcnt
 0001:0009A6B0       PerlIOPending_pushed
 0001:0009A6F0       PerlIOPending_read
 0001:0009A758       PerlIOCrlf_pushed
 0001:0009A7B8       PerlIOCrlf_unread
 0001:0009A8B0       PerlIOCrlf_get_cnt
 0001:0009A998       PerlIOCrlf_set_ptrcnt
 0001:0009AA00       PerlIOCrlf_write
 0001:0009AAFC       PerlIOCrlf_flush
 0001:0009AB20       PerlIOCrlf_binmode
 0001:0009AB3C       Perl_PerlIO_stdin
 0001:0009AB54       Perl_PerlIO_stdout
 0001:0009AB6C       Perl_PerlIO_stderr
 0001:0009ABA4       PerlIO_getname
 0001:0009ABB0       PerlIO_fdopen
 0001:0009ABD0       PerlIO_open
 0001:0009AC30       PerlIO_reopen
 0001:0009AC94       PerlIO_getc
 0001:0009ACC4       PerlIO_ungetc
 0001:0009AD00       PerlIO_putc
 0001:0009AD24       PerlIO_puts
 0001:0009AD58       PerlIO_rewind
 0001:0009AD74       PerlIO_vprintf
 0001:0009ADE8       PerlIO_printf
 0001:0009AE00       PerlIO_stdoutf
 0001:0009AE1C       PerlIO_tmpfile
 0001:0009AE58       PerlIO_setpos
 0001:0009AEC8       PerlIO_getpos
 0001:0009AF2C       PerlIO_vsprintf
 0001:0009AFAC       PerlIO_sprintf
 0001:0009AFD8       Perl_cast_ulong
 0001:0009B088       Perl_cast_i32
 0001:0009B13C       Perl_cast_iv
 0001:0009B1E8       Perl_cast_uv
 0001:0009B288       Perl_huge
 0001:0009B31C       Perl_grok_bin
 0001:0009B630       Perl_grok_hex
 0001:0009B96C       Perl_grok_oct
 0001:0009BBB8       Perl_scan_bin
 0001:0009BC18       Perl_scan_oct
 0001:0009BC78       Perl_scan_hex
 0001:0009BCD8       Perl_grok_numeric_radix
 0001:0009BD84       Perl_grok_number
 0001:0009C388       Perl_my_atof
 0001:0009C45C       Perl_my_atof2
 0001:0009C900       Perl_set_numeric_radix
 0001:0009C978       Perl_new_numeric
 0001:0009CA2C       Perl_set_numeric_standard
 0001:0009CA5C       Perl_set_numeric_local
 0001:0009CA8C       Perl_new_ctype
 0001:0009CAF4       Perl_new_collate
 0001:0009CD94       Perl_init_i18nl10n
 0001:0009D2A0       Perl_init_i18nl14n
 0001:0009D2B0       Perl_mem_collxfrm
 0001:0009E1EC       Perl_unpack_str
 0001:0009E240       Perl_unpackstring
 0001:000A1534       Perl_pp_unpack
 0001:000A1930       Perl_pack_cat
 0001:000A1980       Perl_packlist
 0001:000A3F64       Perl_pp_pack
 0001:000A5160       Perl_sortsv
 0001:000A520C       Perl_pp_sort
 0001:000A60E0       croak_with_os2error
 0001:000A613C       pExtFCN
 0001:000A6850       loadModule
 0001:000A6A68       loadByOrdinal
 0001:000A6C30       init_PMWIN_entries
 0001:000A6C58       gethostent
 0001:000A6C68       getnetent
 0001:000A6C78       getprotoent
 0001:000A6C88       getservent
 0001:000A6C98       sethostent
 0001:000A6CB0       setnetent
 0001:000A6CC8       setprotoent
 0001:000A6CE0       setservent
 0001:000A6CF8       endhostent
 0001:000A6D08       endnetent
 0001:000A6D18       endprotoent
 0001:000A6D28       endservent
 0001:000A6D58       get_sysinfo
 0001:000A6EC0       setpriority
 0001:000A6FF8       getpriority
 0001:000A736C       do_spawn_ve
 0001:000A7FD8       do_spawn3
 0001:000A8484       os2_aspawn4
 0001:000A85B8       os2_do_aspawn
 0001:000A85D0       Perl_do_aexec
 0001:000A85EC       os2_do_spawn
 0001:000A8600       do_spawn_nowait
 0001:000A8614       Perl_do_exec
 0001:000A8628       os2exec
 0001:000A8650       my_syspopen
 0001:000A8914       ctermid
 0001:000A8974       os2_stat
 0001:000A8A50       os2_fstat
 0001:000A8A80       os2_chmod
 0001:000A8B10       settmppath
 0001:000A8BE0       XS_File__Copy_syscopy
 0001:000A8D60       replaceModule
 0001:000A8E0C       XS_OS2_replaceModule
 0001:000A8EF0       perfSysCall
 0001:000A9018       XS_OS2_perfSysCall
 0001:000A93C8       mod2fname
 0001:000A960C       XS_DynaLoader_mod2fname
 0001:000A9774       os2error
 0001:000A9A78       ResetWinError
 0001:000A9ACC       CroakWinError
 0001:000A9CE0       os2_execname
 0001:000A9D54       Perl_OS2_handler_install
 0001:000A9FB0       dir_subst
 0001:000AA46C       perllib_mangle_with
 0001:000AA568       perllib_mangle
 0001:000AA7B8       Perl_hab_GET
 0001:000AA910       Perl_Register_MQ
 0001:000AAA08       Perl_Serve_Messages
 0001:000AAA84       Perl_Process_Messages
 0001:000AAB4C       Perl_Deregister_MQ
 0001:000AAC50       XS_OS2_Error
 0001:000AADE8       XS_OS2_Errors2Drive
 0001:000AAF98       async_mssleep
 0001:000AB1F8       XS_OS2_ms_sleep
 0001:000AB2E0       XS_OS2_Timer
 0001:000AB4B4       XS_OS2_msCounter
 0001:000AB570       XS_OS2__InfoTable
 0001:000ABA34       XS_OS2_DevCap
 0001:000ABEFC       sv_keys
 0001:000AC574       XS_OS2_SysValues
 0001:000AC8F4       XS_OS2_SysValues_set
 0001:000ACCB4       XS_OS2_SysInfo
 0001:000ACEB4       XS_OS2_SysInfoFor
 0001:000AD03C       XS_OS2_BootDrive
 0001:000AD164       XS_OS2_Beep
 0001:000AD268       XS_OS2_MorphPM
 0001:000AD32C       XS_OS2_UnMorphPM
 0001:000AD3A8       XS_OS2_Serve_Messages
 0001:000AD494       XS_OS2_Process_Messages
 0001:000AD5B8       XS_Cwd_current_drive
 0001:000AD680       XS_Cwd_sys_chdir
 0001:000AD75C       XS_Cwd_change_drive
 0001:000AD858       XS_Cwd_sys_is_absolute
 0001:000AD958       XS_Cwd_sys_is_rooted
 0001:000ADA38       XS_Cwd_sys_is_relative
 0001:000ADB0C       XS_Cwd_sys_cwd
 0001:000ADBE0       XS_Cwd_sys_abspath
 0001:000AE000       ExtLIBPATH
 0001:000AE148       XS_Cwd_extLibpath
 0001:000AE2E4       XS_Cwd_extLibpath_set
 0001:000AE414       fill_extLibpath
 0001:000AE654       _DosQueryModFromEIP
 0001:000AE898       XS_OS2_DLLname
 0001:000AE94C       _Dos32QueryHeaderInfo
 0001:000AEA3C       XS_OS2__headerInfo
 0001:000AEC1C       XS_OS2_libPath
 0001:000AED94       XS_OS2__control87
 0001:000AEEBC       XS_OS2_mytype
 0001:000AEFE0       XS_OS2_mytype_set
 0001:000AF074       XS_OS2_get_control87
 0001:000AF148       XS_OS2_set_control87
 0001:000AF2A4       XS_OS2_incrMaxFHandles
 0001:000AF6F8       Xs_OS2_init
 0001:000B0078       Perl_OS2_term
 0001:000B0158       check_emx_runtime
 0001:000B03D8       Perl_OS2_init
 0001:000B0500       Perl_OS2_init3
 0001:000B0790       fd_ok
 0001:000B07E4       dup2
 0001:000B0824       dup
 0001:000B085C       my_tmpnam
 0001:000B08A8       my_tmpfile
 0001:000B08EC       my_rmdir
 0001:000B0988       my_mkdir
 0001:000B0A3C       my_flock
 0001:000B0C80       my_setpwent
 0001:000B0C9C       my_endpwent
 0001:000B0CAC       my_getpwent
 0001:000B0CDC       setgrent
 0001:000B0CE8       endgrent
 0001:000B0CEC       getgrent
 0001:000B0D78       my_getpwuid
 0001:000B0D8C       my_getpwnam
 0001:000B0DC0       gcvt_os2
 0001:000B0F38       fork_with_resources
 0001:000B1064       myDosGetInfoSeg
 0001:000B1150       msCounter
 0001:000B1168       InfoTable
 0001:000B1198       find_myself
 0001:000B12A8       dlopen
 0001:000B14D8       dlsym
 0001:000B1574       dlerror
 0001:000B162C       dlclose
 0001:000B164C       main
 0001:000B18C4       XS_DynaLoader_dl_load_file
 0001:000B19E0       XS_DynaLoader_dl_unload_file
 0001:000B1AF4       XS_DynaLoader_dl_find_symbol
 0001:000B1BE4       XS_DynaLoader_dl_undef_symbols
 0001:000B1C80       XS_DynaLoader_dl_install_xsub
 0001:000B1D80       XS_DynaLoader_dl_error
 0001:000B1F30       boot_DynaLoader
 0001:000B2144       accept
 0001:000B21A8       bind
 0001:000B21D4       connect
 0001:000B2200       getpeername
 0001:000B222C       getsockname
 0001:000B2258       getsockopt
 0001:000B2288       gethostbyaddr
 0001:000B230C       gethostbyname
 0001:000B2380       getnetbyaddr
 0001:000B23B8       getnetbyname
 0001:000B23F0       getprotobyname
 0001:000B2428       getprotobynumber
 0001:000B2460       getservbyname
 0001:000B249C       getservbyport
 0001:000B24D8       listen
 0001:000B2500       recvfrom
 0001:000B2554       send
 0001:000B2580       sendto
 0001:000B25D4       setsockopt
 0001:000B2604       shutdown
 0001:000B262C       socket
 0001:000B2690       _swapl
 0001:000B269C       _swaps
 0001:000B26A4       srandom
 0001:000B2768       initstate
 0001:000B291C       setstate
 0001:000B2A20       random
 0001:000B2AB4       crypt_r
 0001:000B2B24       crypt
 0001:000B2B3C       fcrypt
 0001:000B398C       _ufc_clearmem
 0001:000B39A8       _ufc_copymem
 0001:000B39CC       __init_des_r
 0001:000B40C0       init_des
 0001:000B4100       _ufc_setup_salt_r
 0001:000B4228       _ufc_mk_keytab_r
 0001:000B4358       _ufc_dofinalperm_r
 0001:000B4544       _ufc_output_conversion_r
 0001:000B469C       encrypt_r
 0001:000B4858       encrypt
 0001:000B4870       setkey_r
 0001:000B48C4       setkey
 0001:000B48D8       _ufc_doit_r
 0001:000B4A24       __main
 0001:000B4A50       _DLL_InitTerm
 0001:000B4AA4       __ctordtorInit
 0001:000B4AEC       __ctordtorTerm
 0001:000B4B24       _msgseg32
 0001:000B4B38       DosGetMessage
 0001:000B4B48       __CTOR_LIST__
 0001:000B4B50       __DTOR_LIST__
 0001:000B4B58       __crtinit1__
 0001:000B4B60       __crtexit1__
 0001:000B4B68       __eh_frame__
 0001:000B4B70       _etext
 0002:00000000       _data
 0002:00000018       _heap_base
 0002:0000001C       _heap_end
 0002:00000020       _heap_brk
 0002:000001C8       MallocCfg_ptr
 0002:00000204       MallocCfgP_ptr
 0002:00005A6C       PL_sig_name
 0002:00005AE8       PL_sig_num
 0002:00005B64       PL_fold_locale
 0002:00005C64       PL_op_name
 0002:000061E4       PL_op_desc
 0002:00006764       PL_ppaddr
 0002:00006CE0       PL_check
 0002:00007260       PL_opargs
 0002:000077E0       PL_splitstr
 0002:000077E4       PL_perl_destruct_level
 0002:000077E8       PL_maxsysfd
 0002:000077EC       PL_sub_generation
 0002:000077F0       PL_op_mask
 0002:000077F4       PL_curcopdb
 0002:000077F8       PL_copline
 0002:000077FC       PL_gensym
 0002:00007800       PL_laststatval
 0002:00007804       PL_laststype
 0002:00007808       PL_exitlist
 0002:0000780C       PL_exitlistlen
 0002:00007810       PL_profiledata
 0002:00007814       PL_rsfp
 0002:00007818       PL_rsfp_filters
 0002:0000781C       PL_generation
 0002:00007820       PL_in_clean_objs
 0002:00007821       PL_in_clean_all
 0002:00007824       PL_an
 0002:00007828       PL_cop_seqmax
 0002:0000782C       PL_op_seqmax
 0002:00007830       PL_evalseq
 0002:00007834       PL_maxo
 0002:00007838       PL_sh_path_compat
 0002:0000783C       PL_runops
 0002:00007840       PL_expect
 0002:00007844       PL_amagic_generation
 0002:00007848       PL_collation_ix
 0002:0000784C       PL_collation_standard
 0002:00007850       PL_collxfrm_mult
 0002:00007854       PL_numeric_standard
 0002:00007855       PL_numeric_local
 0002:00007858       PL_glob_index
 0002:0000785C       PL_beginav_save
 0002:00007860       PL_sig_pending
 0002:00007864       PL_savebegin
 0002:00007868       PL_perlio
 0002:0000786C       PL_known_layers
 0002:00007870       PL_def_layerlist
 0002:00007874       PL_encoding
 0002:00007878       PL_checkav_save
 0002:0000787C       PL_clocktick
 0002:00007880       PL_in_load_module
 0002:00007884       PL_sharehook
 0002:00007888       PL_lockhook
 0002:0000788C       PL_unlockhook
 0002:00007890       PL_threadhook
 0002:00007894       PL_runops_std
 0002:00007898       PL_runops_dbg
 0002:0000789C       PL_hash_seed
 0002:000078A0       PL_hash_seed_set
 0002:000078A4       PL_rehash_seed
 0002:000078A8       PL_rehash_seed_set
 0002:000078AC       PL_tmps_ix
 0002:000078B0       PL_tmps_floor
 0002:000078B4       PL_statname
 0002:000078B8       PL_chopset
 0002:000078BC       PL_curcop
 0002:000078C0       PL_dirty
 0002:000078C4       PL_errors
 0002:000078C8       PL_dumpindent
 0002:000078CC       PL_maxscream
 0002:000078D0       PL_regindent
 0002:000078D4       PL_reg_oldcurpm
 0002:000078D8       PL_reg_curpm
 0002:000078DC       PL_reg_poscache
 0002:000078E0       PL_peepp
 0002:000078E4       PL_regcompp
 0002:000078E8       PL_regexecp
 0002:000078EC       PL_regint_start
 0002:000078F0       PL_regint_string
 0002:000078F4       PL_regfree
 0002:000078F8       PL_reginterp_cnt
 0002:000078FC       PL_reg_starttry
 0002:00007900       PL_watchaddr
 0002:00007904       PL_Yes
 0002:00007908       PL_No
 0002:0000790C       PL_hexdigit
 0002:00007910       PL_patleave
 0002:00007914       PL_do_undump
 0002:00007918       PL_sh_path
 0002:0000791C       PL_csighandlerp
 0002:00007920       PL_vtbl_sv
 0002:0000793C       PL_vtbl_env
 0002:00007958       PL_vtbl_envelem
 0002:00007974       PL_vtbl_sig
 0002:00007990       PL_vtbl_sigelem
 0002:000079AC       PL_vtbl_pack
 0002:000079C8       PL_vtbl_packelem
 0002:000079E4       PL_vtbl_dbline
 0002:00007A00       PL_vtbl_isa
 0002:00007A1C       PL_vtbl_isaelem
 0002:00007A38       PL_vtbl_arylen
 0002:00007A54       PL_vtbl_glob
 0002:00007A70       PL_vtbl_mglob
 0002:00007A8C       PL_vtbl_nkeys
 0002:00007AA8       PL_vtbl_taint
 0002:00007AC4       PL_vtbl_substr
 0002:00007AE0       PL_vtbl_vec
 0002:00007AFC       PL_vtbl_pos
 0002:00007B18       PL_vtbl_bm
 0002:00007B34       PL_vtbl_fm
 0002:00007B50       PL_vtbl_uvar
 0002:00007B6C       PL_vtbl_defelem
 0002:00007B88       PL_vtbl_regexp
 0002:00007BA4       PL_vtbl_regdata
 0002:00007BC0       PL_vtbl_regdatum
 0002:00007BDC       PL_vtbl_collxfrm
 0002:00007BF8       PL_vtbl_amagic
 0002:00007C14       PL_vtbl_amagicelem
 0002:00007C30       PL_vtbl_backref
 0002:00007C4C       PL_vtbl_ovrld
 0002:00007C68       PL_vtbl_utf8
 0002:00007C84       PL_AMG_names
 0002:00007D90       PerlIO_remove
 0002:00007E00       PerlIO_utf8
 0002:00007E70       PerlIO_byte
 0002:00007EE0       PerlIO_raw
 0002:00007F50       PerlIO_unix
 0002:00007FC0       PerlIO_stdio
 0002:00008030       PerlIO_perlio
 0002:000080A0       PerlIO_pending
 0002:00008110       PerlIO_crlf
 0002:000086A4       tmppath
 0002:000086BC       h_errno
 0002:00008790       _edata
 0002:0000FFA0       PL_minus_a
 0002:0000FFA4       PL_reentrant_retint
 0002:0000FFA8       PL_minus_c
 0002:0000FFAC       PL_nextval
 0002:0000FFC0       PL_minus_F
 0002:0000FFC4       PL_firstgv
 0002:0000FFC8       PL_sortcop
 0002:0000FFCC       PL_minus_l
 0002:0000FFD0       PL_minus_n
 0002:0000FFD4       PL_minus_p
 0002:0000FFD8       PL_mess_sv
 0002:0000FFDC       PL_he_root
 0002:0000FFE0       PL_pad_reset_pending
 0002:0000FFE4       PL_comppad_name_fill
 0002:0000FFE8       PL_numeric_radix_sv
 0002:0000FFEC       PL_sv_root
 0002:0000FFF0       PL_top_env
 0002:0000FFF4       PL_reg_poscache_size
 0002:0000FFF8       PL_min_intro_pending
 0002:0000FFFC       PL_max_intro_pending
 0002:00010000       PL_comppad_name_floor
 0002:00010004       pDevCloseDC
 0002:00010008       OS2_Perl_data
 0002:00010030       PL_utf8_mark
 0002:00010034       PL_utf8locale
 0002:00010038       PL_utf8_space
 0002:0001003C       PL_filemode
 0002:00010040       PL_utf8_graph
 0002:00010044       PL_utf8_ascii
 0002:00010048       PL_origargc
 0002:0001004C       PL_utf8_digit
 0002:00010050       _ufc_foobar
 0002:000300EC       PL_basetime
 0002:000300F0       PL_DBsingle
 0002:000300F4       PL_utf8_alpha
 0002:000300F8       PL_formfeed
 0002:000300FC       PL_modglobal
 0002:00030100       PL_tokenbuf
 0002:00030200       PL_timesbuf
 0002:00030210       PL_preambled
 0002:00030214       PL_DBsignal
 0002:00030218       PL_utf8_alnum
 0002:0003021C       PL_regflags
 0002:00030220       PL_origalen
 0002:00030224       PL_utf8_print
 0002:00030228       PL_tainting
 0002:0003022C       PL_debstash
 0002:00030230       PL_stack_max
 0002:00030234       PL_savestack
 0002:00030238       PL_utf8_cntrl
 0002:0003023C       PL_defstash
 0002:00030240       PL_modcount
 0002:00030244       PL_utf8_punct
 0002:00030248       PL_mainstack
 0002:0003024C       PL_utf8_upper
 0002:00030250       PL_stack_sp
 0002:00030254       PL_markstack
 0002:00030258       pDevQueryCaps
 0002:0003025C       PL_stderrgv
 0002:00030260       PL_retstack
 0002:00030264       PL_origargv
 0002:00030268       PL_secondgv
 0002:0003026C       PL_regdummy
 0002:00030270       PL_curstack
 0002:00030274       PL_warnhook
 0002:00030278       PL_utf8_lower
 0002:0003027C       PL_bitcount
 0002:00030280       PL_statcache
 0002:000302B4       PL_regcompat1
 0002:000302B8       PL_nexttoke
 0002:000302BC       PL_psig_name
 0002:000302C0       PL_reginput
 0002:000302C4       PL_defoutgv
 0002:000302C8       PL_e_script
 0002:000302CC       PL_BINCOMPAT0
 0002:000302D0       PL_yyerrflag
 0002:000302D4       PL_curstash
 0002:000302D8       PL_debug_pad
 0002:000302FC       PL_psig_ptr
 0002:00030300       PL_extralen
 0002:00030304       PL_colorset
 0002:00030308       PL_psig_pend
 0002:0003030C       PL_oldbufptr
 0002:00030310       PL_sv_undef
 0002:0003031C       PL_doextract
 0002:00030320       PL_linestart
 0002:00030324       PL_last_uni
 0002:00030328       PL_nexttype
 0002:0003033C       PL_sv_count
 0002:00030340       PL_delaymagic
 0002:00030344       PL_last_lop
 0002:00030348       PL_stack_base
 0002:0003034C       PL_toptarget
 0002:00030350       PL_reg_ganch
 0002:00030354       PL_compiling
 0002:0003038C       PL_efloatbuf
 0002:00030390       PL_reg_flags
 0002:00030394       PL_eval_root
 0002:00030398       PL_tmps_max
 0002:0003039C       PL_reg_magic
 0002:000303A0       PL_preambleav
 0002:000303A4       PL_nullstash
 0002:000303A8       PL_curinterp
 0002:000303AC       PL_main_root
 0002:000303B0       PL_curstname
 0002:000303B4       PL_start_env
 0002:000303F8       PL_multiline
 0002:000303FC       PL_argvoutgv
 0002:00030400       PL_lex_repl
 0002:00030404       PL_lex_defer
 0002:00030408       PL_sortcxix
 0002:0003040C       PL_stashcache
 0002:00030410       PL_multi_end
 0002:00030414       PL_regstartp
 0002:00030418       PL_regsawback
 0002:0003041C       PL_localizing
 0002:00030420       PL_pidstatus
 0002:00030424       PL_lex_inpat
 0002:00030428       PL_sortstash
 0002:0003042C       PL_regnarrate
 0002:00030430       PL_screamnext
 0002:00030434       PL_restartop
 0002:00030438       PL_seen_evals
 0002:0003043C       PL_xiv_root
 0002:00030440       PL_preprocess
 0002:00030444       PL_nice_chunk
 0002:00030448       PL_utf8_idcont
 0002:0003044C       PL_eval_start
 0002:00030450       PL_xnv_root
 0002:00030454       PL_scopestack
 0002:00030458       PL_xpv_root
 0002:0003045C       PL_lex_stuff
 0002:00030460       PL_regnaughty
 0002:00030464       PL_xrv_root
 0002:00030468       PL_main_start
 0002:0003046C       PL_patchlevel
 0002:00030470       PMWIN_entries
 0002:00030490       PL_utf8_tofold
 0002:00030494       PL_regprecomp
 0002:00030498       PL_exit_flags
 0002:0003049C       PL_taint_warn
 0002:000304A0       PL_lex_state
 0002:000304A4       PL_utf8_alnumc
 0002:000304A8       PL_formtarget
 0002:000304AC       PL_efloatsize
 0002:000304B0       PL_lastscream
 0002:000304B4       PL_utf8_xdigit
 0002:000304B8       PL_regprogram
 0002:000304BC       PL_bodytarget
 0002:000304C0       PL_tmps_stack
 0002:000304C4       PL_doswitches
 0002:000304C8       PL_xpvbm_root
 0002:000304CC       PL_xpvav_root
 0002:000304D0       PL_xpvcv_root
 0002:000304D4       PL_regcomp_rx
 0002:000304D8       PL_xpvhv_root
 0002:000304DC       PL_reg_oldpos
 0002:000304E0       PL_xpviv_root
 0002:000304E4       PL_multi_open
 0002:000304E8       PL_xpvmg_root
 0002:000304EC       PL_lex_expect
 0002:000304F0       PL_xpvlv_root
 0002:000304F4       PL_xpvnv_root
 0002:000304F8       PL_lex_dojoin
 0002:000304FC       PL_lex_inwhat
 0002:00030500       PL_lex_starts
 0002:00030504       PL_last_in_gv
 0002:00030508       PL_sighandlerp
 0002:0003050C       PL_screamfirst
 0002:00030510       PL_padix_floor
 0002:00030514       PL_globalstash
 0002:00030518       PL_origenviron
 0002:0003051C       PL_forkprocess
 0002:00030520       PL_statusvalue
 0002:00030524       PL_av_fetch_sv
 0002:00030528       PL_sublex_info
 0002:0003053C       PL_reg_call_cc
 0002:00030540       PL_hv_fetch_sv
 0002:00030544       PL_multi_close
 0002:00030548       PL_retstack_ix
 0002:0003054C       PL_error_count
 0002:00030550       PL_reg_maxiter
 0002:00030554       PL_sv_objcount
 0002:00030558       PL_last_lop_op
 0002:0003055C       PL_in_my_stash
 0002:00030560       PL_multi_start
 0002:00030564       PL_na
 0002:00030568       PL_op
 0002:0003056C       PL_rs
 0002:00030570       PL_Sv
 0002:00030574       PL_utf8_totitle
 0002:00030578       PL_utf8_tolower
 0002:0003057C       PL_utf8_idstart
 0002:00030580       PL_utf8_toupper
 0002:00030584       PL_srand_called
 0002:00030588       PL_origfilename
 0002:0003058C       PL_sawampersand
 0002:00030590       PL_localpatches
 0002:00030594       PL_gid
 0002:00030598       pWinOpenWindowDC
 0002:0003059C       PL_Cmd
 0002:000305A0       PL_savestack_max
 0002:000305A4       PL_widesyscalls
 0002:000305A8       PL_uid
 0002:000305AC       PL_he_arenaroot
 0002:000305B0       PL_sigfpe_saved
 0002:000305B4       PL_markstack_max
 0002:000305B8       PL_savestack_ix
 0002:000305BC       PL_numeric_name
 0002:000305C0       PL_sv_arenaroot
 0002:000305C4       PL_nrs
 0002:000305C8       PL_reglastparen
 0002:000305CC       pWinSetSysValue
 0002:000305D0       PL_curstackinfo
 0002:000305D4       PL_sort_RealCmp
 0002:000305D8       PL_seen_zerolen
 0002:000305DC       pDosTmrQueryFreq
 0002:000305E0       PL_Xpv
 0002:000305E4       pDosVerifyPidTid
 0002:000305E8       PL_comppad_name
 0002:000305EC       PL_reg_oldsaved
 0002:000305F0       pDosTmrQueryTime
 0002:000305F4       PL_oldoldbufptr
 0002:000305F8       PL_retstack_max
 0002:000305FC       PL_markstack_ptr
 0002:00030600       PL_lex_casestack
 0002:00030604       PL_collxfrm_base
 0002:00030608       PL_lex_brackets
 0002:0003060C       PL_scopestack_ix
 0002:00030610       PL_pending_ident
 0002:00030614       PL_lex_casemods
 0002:00030618       PL_reg_eval_set
 0002:0003061C       PL_lastgotoprobe
 0002:00030620       PL_reg_leftiter
 0002:00030624       PerlIO_fd_refcnt
 0002:00032624       PL_lex_formbrack
 0002:00032628       PL_last_swash_hv
 0002:0003262C       PL_regcomp_parse
 0002:00032630       PL_argvout_stack
 0002:00032634       PL_collation_name
 0002:00032638       PL_sv_placeholder
 0002:00032644       pWinQuerySysValue
 0002:00032648       PL_xiv_arenaroot
 0002:0003264C       PL_lex_brackstack
 0002:00032650       PL_reg_start_tmp
 0002:00032654       PL_xnv_arenaroot
 0002:00032658       PL_xpv_arenaroot
 0002:0003265C       PL_xrv_arenaroot
 0002:00032660       PL_scopestack_max
 0002:00032664       PL_reg_match_utf8
 0002:00032668       PL_last_swash_key
 0002:00032674       PL_reg_start_tmpl
 0002:00032678       PL_numeric_compat1
 0002:0003267C       PL_egid
 0002:00032680       PL_euid
 0002:00032684       PL_reg_oldsavedlen
 0002:00032688       PL_xpvbm_arenaroot
 0002:0003268C       PL_xpvav_arenaroot
 0002:00032690       PL_hv_fetch_ent_mh
 0002:00032694       PL_xpvcv_arenaroot
 0002:00032698       PL_endav
 0002:0003269C       PL_regcc
 0002:000326A0       PL_nice_chunk_size
 0002:000326A4       PL_DBcv
 0002:000326A8       PL_last_swash_klen
 0002:000326AC       PL_DBgv
 0002:000326B0       PL_xpvhv_arenaroot
 0002:000326B4       PL_defgv
 0002:000326B8       PL_xpviv_arenaroot
 0002:000326BC       PL_incgv
 0002:000326C0       PL_padix
 0002:000326C4       PL_xpvmg_arenaroot
 0002:000326C8       PL_ofmt
 0002:000326CC       PL_Argv
 0002:000326D0       PL_xpvlv_arenaroot
 0002:000326D4       PL_fdpid
 0002:000326D8       PL_xpvnv_arenaroot
 0002:000326DC       PL_custom_op_descs
 0002:000326E0       PL_custom_op_names
 0002:000326E4       PL_last_swash_slen
 0002:000326E8       PL_yyval
 0002:000326EC       PL_errgv
 0002:000326F0       PL_debug
 0002:000326F4       PL_envgv
 0002:000326F8       PL_reg_whilem_seen
 0002:000326FC       PL_last_swash_tmps
 0002:00032700       PL_DBsub
 0002:00032704       PL_curpm
 0002:00032708       PL_hints
 0002:0003270C       PL_bostr
 0002:00032710       PL_in_my
 0002:00032714       PL_regbol
 0002:00032718       PL_sv_no
 0002:00032724       PL_bufend
 0002:00032728       PL_regeol
 0002:0003272C       PL_osname
 0002:00032730       PL_unsafe
 0002:00032734       PL_DBline
 0002:00032738       PL_dowarn
 0002:0003273C       PL_yychar
 0002:00032740       PL_dbargs
 0002:00032744       PL_perldb
 0002:00032748       PL_uudmap
 0002:00032848       PL_replgv
 0002:0003284C       PL_bufptr
 0002:00032850       PL_curpad
 0002:00032854       PL_colors
 0002:0003286C       PL_compcv
 0002:00032870       PL_lastfd
 0002:00032874       PL_statgv
 0002:00032878       PL_initav
 0002:0003287C       PL_argvgv
 0002:00032880       PL_hintgv
 0002:00032884       PL_strtab
 0002:00032888       PL_yylval
 0002:0003288C       PL_reg_re
 0002:00032890       pDevOpenDC
 0002:00032894       PL_reg_sv
 0002:00032898       PL_lex_op
 0002:0003289C       PL_ofs_sv
 0002:000328A0       PL_sv_yes
 0002:000328AC       PL_ors_sv
 0002:000328B0       PL_regcode
 0002:000328B4       PL_regdata
 0002:000328B8       PL_unicode
 0002:000328BC       PL_checkav
 0002:000328C0       PL_regendp
 0002:000328C4       PL_diehook
 0002:000328C8       PL_yydebug
 0002:000328CC       PL_watchok
 0002:000328D0       PL_oldname
 0002:000328D4       PL_tainted
 0002:000328D8       PL_beginav
 0002:000328DC       PL_subline
 0002:000328E0       PL_nomemok
 0002:000328E4       PL_inplace
 0002:000328E8       PL_subname
 0002:000328EC       PL_comppad
 0002:000328F0       PL_reglastcloseparen
 0002:000328F4       PL_linestr
 0002:000328F8       PL_regnpar
 0002:000328FC       PL_DBtrace
 0002:00032900       PL_stdingv
 0002:00032904       PL_lineary
 0002:00032908       PL_in_eval
 0002:0003290C       PL_signals
 0002:00032910       PL_regseen
 0002:00032914       PL_main_cv
 0002:00032918       PL_regsize
 0002:0003291C       PL_statbuf
 0002:00032950       PL_regxend
 0002:00032954       PL_regtill
 0002:00032958       PL_yynerrs
 0002:00032960       _end

Program entry point at 0001:00000000

Line numbers for malloc.obj(malloc.c) segment TEXT32

	 Source       Src File           Seg:Offset
	Line Num       Index                 (0X)
	---------     --------          -------------
	   1149            1            0001:00006ee8
	   1153            1            0001:00006ef0
	   1158            1            0001:00006f0a
	   1159            1            0001:00006f2a
	   1161            1            0001:00006f64
	   1163            1            0001:00006f6c
	   1165            1            0001:00006fa7
	   1166            1            0001:00006fb9
	   1167            1            0001:00006fce
	   1170            1            0001:00006fd4
	   1171            1            0001:00006fe6
	   1172            1            0001:00006ff1
	   1173            1            0001:00007009
	   1174            1            0001:0000701f
	   1175            1            0001:0000702c
	   1184            1            0001:00007034
	   1185            1            0001:0000703a
	   1187            1            0001:00007042
	   1188            1            0001:0000704d
	   1189            1            0001:00007057
	   1190            1            0001:00007061
	   1191            1            0001:00007068
	   1196            1            0001:0000706c
	   1197            1            0001:0000706f
	   1198            1            0001:0000707b
	   1199            1            0001:00007084
	   1200            1            0001:0000708d
	   1202            1            0001:000070a3
	   1203            1            0001:000070ab
	   1204            1            0001:000070b3
	   1205            1            0001:000070b8
	   1218            1            0001:00007150
	   1219            1            0001:00007156
	   1221            1            0001:0000716a
	   1225            1            0001:0000718c
	   1226            1            0001:00007194
	   1229            1            0001:000071b4
	   1230            1            0001:000071be
	   1232            1            0001:000071c6
	   1233            1            0001:000071cf
	   1234            1            0001:000071d8
	   1235            1            0001:000071e4
	   1239            1            0001:000071ec
	   1240            1            0001:000071fd
	   1242            1            0001:00007204
	   1243            1            0001:0000720d
	   1244            1            0001:00007223
	   1245            1            0001:0000722d
	   1246            1            0001:00007237
	   1249            1            0001:0000723e
	   1250            1            0001:00007244
	   1251            1            0001:00007255
	   1252            1            0001:0000725b
	   1253            1            0001:00007261
	   1254            1            0001:00007264
	   1258            1            0001:0000726c
	   1261            1            0001:00007278
	   1262            1            0001:0000728d
	   1265            1            0001:00007294
	   1266            1            0001:0000729c
	   1267            1            0001:000072a4
	   1270            1            0001:000072a5
	   1272            1            0001:000072c4
	   1273            1            0001:000072c8
	   1281            1            0001:000072cc
	   1282            1            0001:000072cf
	   1283            1            0001:000072ec
	   1403            1            0001:00007334
	   1426            1            0001:00007343
	   1427            1            0001:00007347
	   1428            1            0001:00007350
	   1429            1            0001:00007355
	   1430            1            0001:0000737e
	   1439            1            0001:00007380
	   1440            1            0001:00007390
	   1441            1            0001:00007393
	   1445            1            0001:00007399
	   1446            1            0001:000073a3
	   1448            1            0001:000073aa
	   1449            1            0001:000073bc
	   1456            1            0001:000073c4
	   1457            1            0001:000073ea
	   1458            1            0001:000073f5
	   1463            1            0001:00007425
	   1468            1            0001:00007432
	   1469            1            0001:00007441
	   1470            1            0001:0000744d
	   1472            1            0001:00007450
	   1476            1            0001:00007468
	   1478            1            0001:00007474
	   1479            1            0001:000074d0
	   1480            1            0001:00007518
	   1481            1            0001:00007534
	   1482            1            0001:0000754c
	   1483            1            0001:00007558
	   1485            1            0001:00007578
	   1486            1            0001:000075d4
	   1487            1            0001:0000761c
	   1488            1            0001:00007638
	   1490            1            0001:00007650
	   1494            1            0001:0000765c
	   1516            1            0001:00007660
	   1529            1            0001:00007685
	   1531            1            0001:0000768b
	   1557            1            0001:000076c1
	   1558            1            0001:000076c8
	   1579            1            0001:000076d4
	   1580            1            0001:000076db
	   1581            1            0001:000076ea
	   1582            1            0001:000076f1
	   1584            1            0001:000076f8
	   1585            1            0001:00007700
	   1586            1            0001:0000770b
	   1587            1            0001:0000771b
	   1588            1            0001:00007729
	   1589            1            0001:0000772f
	   1591            1            0001:00007735
	   1592            1            0001:0000773b
	   1595            1            0001:00007740
	   1596            1            0001:00007746
	   1597            1            0001:0000774e
	   1598            1            0001:00007750
	   1599            1            0001:0000775c
	   1600            1            0001:00007762
	   1601            1            0001:0000776a
	   1603            1            0001:00007774
	   1604            1            0001:00007782
	   1605            1            0001:0000778d
	   1606            1            0001:00007797
	   1607            1            0001:000077a0
	   1608            1            0001:000077a4
	   1609            1            0001:000077ac
	   1610            1            0001:000077b8
	   1611            1            0001:000077be
	   1613            1            0001:000077c8
	   1617            1            0001:000077d0
	   1618            1            0001:000077d7
	   1619            1            0001:000077df
	   1621            1            0001:000077e5
	   1622            1            0001:000077eb
	   1623            1            0001:000077f3
	   1624            1            0001:00007805
	   1625            1            0001:0000780f
	   1626            1            0001:00007815
	   1630            1            0001:0000781c
	   1631            1            0001:00007825
	   1633            1            0001:0000782c
	   1636            1            0001:00007840
	   1638            1            0001:0000787b
	   1639            1            0001:00007895
	   1640            1            0001:000078ad
	   1641            1            0001:000078cc
	   1643            1            0001:000078d6
	   1645            1            0001:00007900
	   1646            1            0001:00007914
	   1648            1            0001:0000791b
	   1651            1            0001:0000796d
	   1653            1            0001:00007974
	   1654            1            0001:00007977
	   1655            1            0001:0000797c
	   1656            1            0001:00007980
	   1660            1            0001:000079b8
	   1663            1            0001:000079be
	   1666            1            0001:000079d2
	   1668            1            0001:000079d9
	   1669            1            0001:000079e6
	   1670            1            0001:00007a00
	   1671            1            0001:00007a10
	   1673            1            0001:00007a2f
	   1674            1            0001:00007a58
	   1675            1            0001:00007a79
	   1676            1            0001:00007aa2
	   1677            1            0001:00007aa4
	   1678            1            0001:00007ab0
	   1679            1            0001:00007aba
	   1685            1            0001:00007ac4
	   1687            1            0001:00007ad8
	   1689            1            0001:00007ade
	   1691            1            0001:00007aef
	   1692            1            0001:00007af5
	   1693            1            0001:00007b09
	   1694            1            0001:00007b1f
	   1695            1            0001:00007b3e
	   1696            1            0001:00007b4a
	   1697            1            0001:00007b5e
	   1698            1            0001:00007b64
	   1699            1            0001:00007b6c
	   1700            1            0001:00007b7d
	   1702            1            0001:00007b87
	   1703            1            0001:00007b94
	   1704            1            0001:00007b9c
	   1707            1            0001:00007baa
	   1709            1            0001:00007bb3
	   1714            1            0001:00007be1
	   1720            1            0001:00007be8
	   1721            1            0001:00007bf9
	   1722            1            0001:00007c11
	   1727            1            0001:00007c1d
	   1732            1            0001:00007c27
	   1734            1            0001:00007c3b
	   1735            1            0001:00007c41
	   1737            1            0001:00007c50
	   1742            1            0001:00007c6d
	   1744            1            0001:00007c73
	   1747            1            0001:00007ca0
	   1750            1            0001:00007ca9
	   1752            1            0001:00007cb8
	   1756            1            0001:00007cc4
	   1758            1            0001:00007cd8
	   1760            1            0001:00007cde
	   1761            1            0001:00007ce4
	   1763            1            0001:00007cec
	   1765            1            0001:00007cf6
	   1766            1            0001:00007cf8
	   1767            1            0001:00007d04
	   1771            1            0001:00007d12
	   1772            1            0001:00007d1b
	   1775            1            0001:00007d2c
	   1782            1            0001:00007d38
	   1783            1            0001:00007d49
	   1787            1            0001:00007d7c
	   1791            1            0001:00007d8b
	   1793            1            0001:00007d9d
	   1796            1            0001:00007da8
	   1801            1            0001:00007dc3
	   1802            1            0001:00007dd6
	   1805            1            0001:00007de4
	   1807            1            0001:00007dee
	   1809            1            0001:00007e01
	   1811            1            0001:00007e10
	   1812            1            0001:00007e18
	   1816            1            0001:00007e1c
	   1817            1            0001:00007e22
	   1818            1            0001:00007e2d
	   1819            1            0001:00007e36
	   1822            1            0001:00007e3c
	   1824            1            0001:00007e44
	   1826            1            0001:00007e53
	   1827            1            0001:00007e59
	   1829            1            0001:00007e62
	   1830            1            0001:00007e6d
	   1831            1            0001:00007e77
	   1832            1            0001:00007e86
	   1833            1            0001:00007e88
	   1835            1            0001:00007e8e
	   1837            1            0001:00007e97
	   1840            1            0001:00007e9c
	   1841            1            0001:00007ea5
	   1843            1            0001:00007ec3
	   1844            1            0001:00007ed5
	   1845            1            0001:00007ee0
	   1846            1            0001:00007eea
	   1847            1            0001:00007ef4
	   1848            1            0001:00007efe
	   1852            1            0001:00007f04
	   1853            1            0001:00007f0c
	   1860            1            0001:00007f88
	   1867            1            0001:00007f94
	   1868            1            0001:00007fac
	   1870            1            0001:00007fb4
	   1872            1            0001:00007fc1
	   1873            1            0001:00007fcb
	   1874            1            0001:00007fd8
	   1875            1            0001:00007ffa
	   1876            1            0001:00008001
	   1879            1            0001:00008008
	   1880            1            0001:00008064
	   1882            1            0001:0000806b
	   1883            1            0001:0000806f
	   1884            1            0001:00008094
	   1885            1            0001:000080d0
	   1886            1            0001:000080f0
	   1887            1            0001:0000811d
	   1888            1            0001:00008124
	   1889            1            0001:00008154
	   1890            1            0001:00008162
	   1892            1            0001:00008165
	   1893            1            0001:0000816c
	   1894            1            0001:00008180
	   1895            1            0001:0000818d
	   1896            1            0001:0000819e
	   1898            1            0001:000081ab
	   1899            1            0001:000081b1
	   1903            1            0001:000081bb
	   1905            1            0001:000081c0
	   1907            1            0001:000081d4
	   1908            1            0001:000081e3
	   1910            1            0001:000081eb
	   1914            1            0001:00008203
	   1915            1            0001:00008222
	   1916            1            0001:00008240
	   1917            1            0001:00008266
	   1918            1            0001:0000828b
	   1921            1            0001:000082dd
	   1922            1            0001:000082fc
	   1927            1            0001:00008303
	   1932            1            0001:0000832b
	   1938            1            0001:00008357
	   1939            1            0001:00008367
	   1940            1            0001:0000837d
	   1941            1            0001:00008386
	   1942            1            0001:0000838f
	   1943            1            0001:00008394
	   1945            1            0001:000083ac
	   1946            1            0001:000083b2
	   1953            1            0001:000083b8
	   1955            1            0001:000083fe
	   1956            1            0001:00008405
	   1957            1            0001:0000840e
	   1958            1            0001:0000853f
	   1960            1            0001:000085d7
	   1962            1            0001:00008736
	   1963            1            0001:00008745
	   1964            1            0001:0000887b
	   1965            1            0001:0000887f
	   1967            1            0001:00008888
	   1969            1            0001:000088a0
	   1970            1            0001:000088de
	   1971            1            0001:000088e3
	   1975            1            0001:000088ff
	   1976            1            0001:0000890c
	   1977            1            0001:00008917
	   1978            1            0001:0000891d
	   1980            1            0001:00008920
	   1982            1            0001:00008929
	   1983            1            0001:0000892e
	   1984            1            0001:0000893f
	   1987            1            0001:00008946
	   1990            1            0001:00008957
	   1994            1            0001:0000898c
	   1997            1            0001:00008995
	   2006            1            0001:0000899b
	   2007            1            0001:000089a1
	   2012            1            0001:000089a8
	   2015            1            0001:000089ab
	   2018            1            0001:000089b7
	   2025            1            0001:000089ef
	   2027            1            0001:000089f8
	   2028            1            0001:00008a0a
	   2030            1            0001:00008a2a
	   2031            1            0001:00008a33
	   2049            1            0001:00008a38
	   2050            1            0001:00008a7c
	   2056            1            0001:00008a90
	   2083            1            0001:00008a94
	   2086            1            0001:00008a9e
	   2087            1            0001:00008aaf
	   2089            1            0001:00008abe
	   2098            1            0001:00008adc
	   2106            1            0001:00008ae5
	   2116            1            0001:00008aeb
	   2117            1            0001:00008af1
	   2119            1            0001:00008b08
	   2121            1            0001:00008b0e
	   2124            1            0001:00008b1c
	   2131            1            0001:00008b58
	   2133            1            0001:00008b61
	   2134            1            0001:00008b73
	   2136            1            0001:00008b96
	   2137            1            0001:00008b9f
	   2157            1            0001:00008ba8
	   2158            1            0001:00008bec
	   2165            1            0001:00008c00
	   2168            1            0001:00008c08
	   2178            1            0001:00008c56
	   2188            1            0001:00008c6c
	   2191            1            0001:00008c87
	   2193            1            0001:00008cfc
	   2194            1            0001:00008d08
	   2199            1            0001:00008d0f
	   2246            1            0001:00008d15
	   2251            1            0001:00008d1b
	   2253            1            0001:00008d49
	   2256            1            0001:00008d4f
	   2257            1            0001:00008d64
	   2259            1            0001:00008d68
	   2260            1            0001:00008d74
	   2262            1            0001:00008d7b
	   2263            1            0001:00008d8c
	   2264            1            0001:00008d94
	   2265            1            0001:00008dbf
	   2268            1            0001:00008dcb
	   2271            1            0001:00008deb
	   2272            1            0001:00008dfd
	   2274            1            0001:00008e11
	   2276            1            0001:00008e25
	   2277            1            0001:00008e2c
	   2279            1            0001:00008e30
	   2281            1            0001:00008e34
	   2287            1            0001:00008e38
	   2288            1            0001:00008e4f
	   2289            1            0001:00008e54
	   2290            1            0001:00008e5c
	   2291            1            0001:00008e78
	   2293            1            0001:00008e84
	   2294            1            0001:00008e8c
	   2298            1            0001:00008e94
	   2299            1            0001:00008ea2
	   2300            1            0001:00008eaa
	   2302            1            0001:00008ebb
	   2303            1            0001:00008ec1
	   2305            1            0001:00008ed3
	   2306            1            0001:00008edc
	   2310            1            0001:00008ee4
	   2311            1            0001:00008eea
	   2312            1            0001:00008efb
	   2314            1            0001:00008f0b
	   2315            1            0001:00008f20
	   2316            1            0001:00008f28
	   2321            1            0001:00008f2c
	   2326            1            0001:00008f32
	   2330            1            0001:00008f38
	   2331            1            0001:00008f50
	   2332            1            0001:00008f58
	   2333            1            0001:00008f60
	   2334            1            0001:00008f68
	   2335            1            0001:00008f75
	   2336            1            0001:00008f7b
	   2338            1            0001:00008f84
	   2339            1            0001:00008f94
	   2340            1            0001:00008fa8
	   2341            1            0001:00008fb6
	   2342            1            0001:00008fc7
	   2343            1            0001:00008fcf
	   2344            1            0001:00008fdb
	   2345            1            0001:00008fe0
	   2350            1            0001:00008fe4
	   2351            1            0001:00008fed
	   2353            1            0001:00008ff3
	   2363            1            0001:00009001
	   2364            1            0001:00009058
	   2374            1            0001:00009060
	   2380            1            0001:0000906c
	   2383            1            0001:000090c6
	   2385            1            0001:000090d0
	   2386            1            0001:000090e4
	   2388            1            0001:00009120
	   2389            1            0001:00009128
	   2390            1            0001:00009143
	   2392            1            0001:00009185
	   2393            1            0001:00009269
	   2394            1            0001:00009376
	   2395            1            0001:00009396
	   2396            1            0001:000093b5
	   2385            1            0001:000093be
	   2399            1            0001:000093c8
	   2400            1            0001:000093d0
	   2401            1            0001:000093d8
	   2402            1            0001:0000941a
	   2403            1            0001:0000942e
	   2404            1            0001:00009430
	   2405            1            0001:0000945a
	   2406            1            0001:00009472
	   2407            1            0001:0000948a
	   2408            1            0001:000094a2
	   2409            1            0001:000094ba
	   2411            1            0001:000094d2
	   2412            1            0001:000094dc
	   2413            1            0001:000094e6
	   2414            1            0001:000094f8
	   2415            1            0001:00009500
	   2416            1            0001:00009508
	   2417            1            0001:000095ad
	   2413            1            0001:0000968a
	   2421            1            0001:00009694
	   2422            1            0001:00009698
	   2432            1            0001:00009770
	   2439            1            0001:0000977c
	   2440            1            0001:00009785
	   2441            1            0001:0000978e
	   2443            1            0001:0000979e
	   2444            1            0001:000097a8
	   2451            1            0001:000098b9
	   2452            1            0001:00009935
	   2453            1            0001:00009944
	   2452            1            0001:000099e9
	   2460            1            0001:000099f4
	   2461            1            0001:00009a6d
	   2462            1            0001:00009a7c
	   2461            1            0001:00009b21
	   2469            1            0001:00009b2c
	   2470            1            0001:00009bad
	   2471            1            0001:00009bbc
	   2470            1            0001:00009c7d
	   2478            1            0001:00009c88
	   2479            1            0001:00009d01
	   2480            1            0001:00009d10
	   2479            1            0001:00009dd1
	   2487            1            0001:00009ddc
	   2492            1            0001:00009e71

	Record Number of Start of Source: 0
	Number of Primary Source Records: 0
	Source & Listing Files:
	File 1)malloc.c

Line numbers for i:\emx.add\lib\crypt.lib(crypt-entry.obj) segment TEXT32

	 Source       Src File           Seg:Offset
	Line Num       Index                 (0X)
	---------     --------          -------------

	Record Number of Start of Source: 0
	Number of Primary Source Records: 0
	Source & Listing Files:
	File 1)crypt-entry

Line numbers for i:\emx.add\lib\crypt.lib(crypt_util.obj) segment TEXT32

	 Source       Src File           Seg:Offset
	Line Num       Index                 (0X)
	---------     --------          -------------

	Record Number of Start of Source: 0
	Number of Primary Source Records: 0
	Source & Listing Files:
	File 1)crypt_util

Line numbers for i:\emx.add\lib\crypt.lib(crypt.obj) segment TEXT32

	 Source       Src File           Seg:Offset
	Line Num       Index                 (0X)
	---------     --------          -------------

	Record Number of Start of Source: 0
	Number of Primary Source Records: 0
	Source & Listing Files:
	File 1)crypt
